libvyatta-dataplane-proto.so.1 libvyatta-dataplane-proto1 #MINVER#
 _BreakoutConfig_BreakoutIfConfig_default_instance_@Base 3.13.6
 _BreakoutConfig_default_instance_@Base 3.13.6
 _CgnatLog_default_instance_@Base 3.13.6
 _ConstraintLog_default_instance_@Base 3.13.6
 _CryptoPolicyConfig_default_instance_@Base 3.13.6
 _DPSessionCounterMsg_default_instance_@Base 3.13.34
 _DPSessionKeyMsg_default_instance_@Base 3.13.34
 _DPSessionMsg_default_instance_@Base 3.13.34
 _DPSessionStateMsg_default_instance_@Base 3.13.34
 _DataplaneEnvelope_default_instance_@Base 3.13.6
 _FeatureAffinityConfig_default_instance_@Base 3.13.6
 _GArpConfig_default_instance_@Base 3.13.6
 _GPCConfig_default_instance_@Base 3.13.6
 _GPCCounter_default_instance_@Base 3.13.6
 _GPCTable_default_instance_@Base 3.13.6
 _ICMPRateLimConfig_default_instance_@Base 3.13.34
 _IP6RedirectsConfig_default_instance_@Base 3.13.6
 _IPAddressOrLabel_default_instance_@Base 3.13.6
 _IPAddress_default_instance_@Base 3.13.6
 _IPPrefix_default_instance_@Base 3.13.6
 _LAGConfig_LagCreate_LacpOptions_default_instance_@Base 3.13.6
 _LAGConfig_LagCreate_default_instance_@Base 3.13.6
 _LAGConfig_LagDelete_default_instance_@Base 3.13.6
 _LAGConfig_default_instance_@Base 3.13.6
 _MacLimitConfig_MacLimitIfVLANConfig_default_instance_@Base 3.13.6
 _MacLimitConfig_MacLimitProfileConfig_default_instance_@Base 3.13.6
 _MacLimitConfig_default_instance_@Base 3.13.6
 _NPFSessionMsg_default_instance_@Base 3.13.34
 _NPFSessionStateMsg_default_instance_@Base 3.13.34
 _NbrResConfig_default_instance_@Base 3.13.6
 _PPPOEConfig_default_instance_@Base 3.13.6
 _PackedDPSessionMsg_default_instance_@Base 3.13.34
 _Path_default_instance_@Base 3.13.6
 _PauseConfig_PauseIfConfig_default_instance_@Base 3.13.6
 _PauseConfig_default_instance_@Base 3.13.6
 _PipelineStatsConfig_default_instance_@Base 3.13.6
 _PolicerParams_default_instance_@Base 3.13.6
 _PortAllocationLog_default_instance_@Base 3.13.6
 _RibUpdate_default_instance_@Base 3.13.6
 _Route_default_instance_@Base 3.13.6
 _RuleAction_default_instance_@Base 3.13.6
 _RuleCounter_default_instance_@Base 3.13.6
 _RuleMatch_ICMPTypeAndCode_default_instance_@Base 3.13.6
 _RuleMatch_default_instance_@Base 3.13.6
 _Rule_default_instance_@Base 3.13.6
 _Rules_default_instance_@Base 3.13.6
 _SessionLog_default_instance_@Base 3.13.6
 _SfpPermitConfig_ListConfig_default_instance_@Base 3.13.34
 _SfpPermitConfig_MisMatchConfig_default_instance_@Base 3.13.34
 _SfpPermitConfig_SFP_default_instance_@Base 3.13.34
 _SfpPermitConfig_default_instance_@Base 3.13.34
 _SpeedConfig_default_instance_@Base 3.13.6
 _SubscriberLog_default_instance_@Base 3.13.6
 _SynceConfig_default_instance_@Base 3.13.6
 _TCPMSSConfig_default_instance_@Base 3.13.6
 _TCPWindowMsg_default_instance_@Base 3.13.34
 _TWAMPCmdResponse_default_instance_@Base 3.13.34
 _TWAMPCmd_default_instance_@Base 3.13.34
 _TWAMPInitialise_default_instance_@Base 3.13.34
 _TWAMPSessionCounterResponse_default_instance_@Base 3.13.34
 _TWAMPSessionCounters_default_instance_@Base 3.13.34
 _TWAMPSessionCreate_default_instance_@Base 3.13.34
 _TWAMPSessionDelete_default_instance_@Base 3.13.34
 _TWAMPSessionKey_default_instance_@Base 3.13.34
 _Timestamp_default_instance_@Base 3.13.6
 _VFPSetConfig_default_instance_@Base 3.13.6
 _XConnectConfig_default_instance_@Base 3.13.6
 _Z17Direction_IsValidi@Base 3.13.6
 _Z19TrafficType_IsValidi@Base 3.13.6
 _Z20Direction_descriptorv@Base 3.13.6
 _Z20SessionState_IsValidi@Base 3.13.6
 _Z21Path_PathType_IsValidi@Base 3.13.6
 _Z22TrafficType_descriptorv@Base 3.13.6
 _Z23ConstraintLimit_IsValidi@Base 3.13.6
 _Z23SessionState_descriptorv@Base 3.13.6
 _Z24Path_PathType_descriptorv@Base 3.13.6
 _Z24PolicerAwareness_IsValidi@Base 3.13.6
 _Z24RibUpdate_Action_IsValidi@Base 3.13.6
 _Z24SessionEventType_IsValidi@Base 3.13.6
 _Z25GArpConfig_arp_op_IsValidi@Base 3.13.6
 _Z25LAGConfig_LagMode_IsValidi@Base 3.13.6
 _Z25NbrResConfig_Prot_IsValidi@Base 3.13.6
 _Z25Route_PayloadType_IsValidi@Base 3.13.6
 _Z26ConstraintLimit_descriptorv@Base 3.13.6
 _Z26NbrResConfig_Param_IsValidi@Base 3.13.6
 _Z26SpeedConfig_Duplex_IsValidi@Base 3.13.6
 _Z26SynceConfig_Action_IsValidi@Base 3.13.6
 _Z27ConstraintEventType_IsValidi@Base 3.13.6
 _Z27NbrResConfig_Action_IsValidi@Base 3.13.6
 _Z27PolicerAwareness_descriptorv@Base 3.13.6
 _Z27RibUpdate_Action_descriptorv@Base 3.13.6
 _Z27RuleMatch_FragValue_IsValidi@Base 3.13.6
 _Z27SessionEventType_descriptorv@Base 3.13.6
 _Z27SubscriberEventType_IsValidi@Base 3.13.6
 _Z27VFPSetConfig_Action_IsValidi@Base 3.13.6
 _Z28GArpConfig_arp_op_descriptorv@Base 3.13.6
 _Z28LAGConfig_LagMode_descriptorv@Base 3.13.6
 _Z28NbrResConfig_Prot_descriptorv@Base 3.13.6
 _Z28Route_PayloadType_descriptorv@Base 3.13.6
 _Z28TCPMSSConfig_MTUType_IsValidi@Base 3.13.6
 _Z28VFPSetConfig_VFPType_IsValidi@Base 3.13.6
 _Z29BreakoutConfig_Action_IsValidi@Base 3.13.6
 _Z29GPCConfig_FeatureType_IsValidi@Base 3.13.6
 _Z29MacLimitConfig_Action_IsValidi@Base 3.13.6
 _Z29NbrResConfig_Param_descriptorv@Base 3.13.6
 _Z29RuleMatch_ICMPV6Class_IsValidi@Base 3.13.6
 _Z29SpeedConfig_Duplex_descriptorv@Base 3.13.6
 _Z29SynceConfig_Action_descriptorv@Base 3.13.6
 _Z30ConstraintEventType_descriptorv@Base 3.13.6
 _Z30ICMPRateLimConfig_Prot_IsValidi@Base 3.13.34
 _Z30ICMPRateLimConfig_Type_IsValidi@Base 3.13.34
 _Z30LAGConfig_LacpActivity_IsValidi@Base 3.13.6
 _Z30NbrResConfig_Action_descriptorv@Base 3.13.6
 _Z30PauseConfig_PauseValue_IsValidi@Base 3.13.6
 _Z30RuleAction_ColourValue_IsValidi@Base 3.13.6
 _Z30RuleMatch_FragValue_descriptorv@Base 3.13.6
 _Z30SfpPermitConfig_Action_IsValidi@Base 3.13.34
 _Z30SubscriberEventType_descriptorv@Base 3.13.6
 _Z30VFPSetConfig_Action_descriptorv@Base 3.13.6
 _Z31ICMPRateLimConfig_Param_IsValidi@Base 3.13.34
 _Z31PortAllocationEventType_IsValidi@Base 3.13.6
 _Z31RuleCounter_CounterType_IsValidi@Base 3.13.6
 _Z31SfpPermitConfig_Logging_IsValidi@Base 3.13.34
 _Z31TCPMSSConfig_MTUType_descriptorv@Base 3.13.6
 _Z31TWAMPSessionCreate_Mode_IsValidi@Base 3.13.34
 _Z31VFPSetConfig_VFPType_descriptorv@Base 3.13.6
 _Z32BreakoutConfig_Action_descriptorv@Base 3.13.6
 _Z32GPCConfig_FeatureType_descriptorv@Base 3.13.6
 _Z32GPCCounter_CounterFormat_IsValidi@Base 3.13.6
 _Z32GPCTable_FeatureLocation_IsValidi@Base 3.13.6
 _Z32ICMPRateLimConfig_Action_IsValidi@Base 3.13.34
 _Z32MacLimitConfig_Action_descriptorv@Base 3.13.6
 _Z32RuleMatch_ICMPV6Class_descriptorv@Base 3.13.6
 _Z33CryptoPolicyConfig_Action_IsValidi@Base 3.13.6
 _Z33ICMPRateLimConfig_Prot_descriptorv@Base 3.13.34
 _Z33ICMPRateLimConfig_Type_descriptorv@Base 3.13.34
 _Z33LAGConfig_LacpActivity_descriptorv@Base 3.13.6
 _Z33PauseConfig_PauseValue_descriptorv@Base 3.13.6
 _Z33RuleAction_ColourValue_descriptorv@Base 3.13.6
 _Z33RuleAction_PacketDecision_IsValidi@Base 3.13.6
 _Z33SfpPermitConfig_Action_descriptorv@Base 3.13.34
 _Z34GArpConfig_garp_pkt_action_IsValidi@Base 3.13.6
 _Z34ICMPRateLimConfig_Param_descriptorv@Base 3.13.34
 _Z34LAGConfig_LacpPeriodicRate_IsValidi@Base 3.13.6
 _Z34PortAllocationEventType_descriptorv@Base 3.13.6
 _Z34RuleCounter_CounterType_descriptorv@Base 3.13.6
 _Z34SfpPermitConfig_Logging_descriptorv@Base 3.13.34
 _Z34TCPMSSConfig_AddressFamily_IsValidi@Base 3.13.6
 _Z34TWAMPSessionCreate_Mode_descriptorv@Base 3.13.34
 _Z34XConnectConfig_CommandType_IsValidi@Base 3.13.6
 _Z35GPCCounter_CounterFormat_descriptorv@Base 3.13.6
 _Z35GPCTable_FeatureLocation_descriptorv@Base 3.13.6
 _Z35ICMPRateLimConfig_Action_descriptorv@Base 3.13.34
 _Z35SfpPermitConfig_Enforcement_IsValidi@Base 3.13.34
 _Z36CryptoPolicyConfig_Action_descriptorv@Base 3.13.6
 _Z36RuleAction_PacketDecision_descriptorv@Base 3.13.6
 _Z37FeatureAffinityConfig_Feature_IsValidi@Base 3.13.6
 _Z37GArpConfig_garp_pkt_action_descriptorv@Base 3.13.6
 _Z37LAGConfig_LacpPeriodicRate_descriptorv@Base 3.13.6
 _Z37TCPMSSConfig_AddressFamily_descriptorv@Base 3.13.6
 _Z37XConnectConfig_CommandType_descriptorv@Base 3.13.6
 _Z38SfpPermitConfig_Enforcement_descriptorv@Base 3.13.34
 _Z40FeatureAffinityConfig_Feature_descriptorv@Base 3.13.6
 _ZN10GArpConfig10SharedCtorEv@Base 3.13.6
 _ZN10GArpConfig10SharedDtorEv@Base 3.13.6
 _ZN10GArpConfig10arp_op_MAXE@Base 3.13.6
 _ZN10GArpConfig10arp_op_MINE@Base 3.13.6
 _ZN10GArpConfig10descriptorEv@Base 3.13.6
 _ZN10GArpConfig11ARPOP_REPLYE@Base 3.13.6
 _ZN10GArpConfig12InternalSwapEPS_@Base 3.13.6
 _ZN10GArpConfig13ARPOP_REQUESTE@Base 3.13.6
 _ZN10GArpConfig13GARP_PKT_DROPE@Base 3.13.6
 _ZN10GArpConfig14kOpFieldNumberE@Base 3.13.6
 _ZN10GArpConfig15GARP_PKT_UPDATEE@Base 3.13.6
 _ZN10GArpConfig15kSetFieldNumberE@Base 3.13.6
 _ZN10GArpConfig16arp_op_ARRAYSIZEE@Base 3.13.6
 _ZN10GArpConfig16default_instanceEv@Base 3.13.6
 _ZN10GArpConfig18kActionFieldNumberE@Base 3.13.6
 _ZN10GArpConfig18kIfnameFieldNumberE@Base 3.13.6
 _ZN10GArpConfig19garp_pkt_action_MAXE@Base 3.13.6
 _ZN10GArpConfig19garp_pkt_action_MINE@Base 3.13.6
 _ZN10GArpConfig21InitAsDefaultInstanceEv@Base 3.13.6
 _ZN10GArpConfig25garp_pkt_action_ARRAYSIZEE@Base 3.13.6
 _ZN10GArpConfig27MergePartialFromCodedStreamEPN6google8protobuf2io16CodedInputStreamE@Base 3.13.6
 _ZN10GArpConfig4SwapEPS_@Base 3.13.6
 _ZN10GArpConfig5ClearEv@Base 3.13.6
 _ZN10GArpConfig8CopyFromERKN6google8protobuf7MessageE@Base 3.13.6
 _ZN10GArpConfig8CopyFromERKS_@Base 3.13.6
 _ZN10GArpConfig9MergeFromERKN6google8protobuf7MessageE@Base 3.13.6
 _ZN10GArpConfig9MergeFromERKS_@Base 3.13.6
 _ZN10GArpConfigC1ERKS_@Base 3.13.6
 _ZN10GArpConfigC1Ev@Base 3.13.6
 _ZN10GArpConfigC2ERKS_@Base 3.13.6
 _ZN10GArpConfigC2Ev@Base 3.13.6
 _ZN10GArpConfigD0Ev@Base 3.13.6
 _ZN10GArpConfigD1Ev@Base 3.13.6
 _ZN10GArpConfigD2Ev@Base 3.13.6
 _ZN10GPCCounter10SharedCtorEv@Base 3.13.6
 _ZN10GPCCounter10SharedDtorEv@Base 3.13.6
 _ZN10GPCCounter10descriptorEv@Base 3.13.6
 _ZN10GPCCounter12InternalSwapEPS_@Base 3.13.6
 _ZN10GPCCounter12PACKETS_ONLYE@Base 3.13.6
 _ZN10GPCCounter14FORMAT_UNKNOWNE@Base 3.13.6
 _ZN10GPCCounter16default_instanceEv@Base 3.13.6
 _ZN10GPCCounter16kNameFieldNumberE@Base 3.13.6
 _ZN10GPCCounter17CounterFormat_MAXE@Base 3.13.6
 _ZN10GPCCounter17CounterFormat_MINE@Base 3.13.6
 _ZN10GPCCounter18kFormatFieldNumberE@Base 3.13.6
 _ZN10GPCCounter21InitAsDefaultInstanceEv@Base 3.13.6
 _ZN10GPCCounter23CounterFormat_ARRAYSIZEE@Base 3.13.6
 _ZN10GPCCounter23PACKETS_AND_L2_L3_BYTESE@Base 3.13.6
 _ZN10GPCCounter27MergePartialFromCodedStreamEPN6google8protobuf2io16CodedInputStreamE@Base 3.13.6
 _ZN10GPCCounter4SwapEPS_@Base 3.13.6
 _ZN10GPCCounter5ClearEv@Base 3.13.6
 _ZN10GPCCounter8CopyFromERKN6google8protobuf7MessageE@Base 3.13.6
 _ZN10GPCCounter8CopyFromERKS_@Base 3.13.6
 _ZN10GPCCounter9MergeFromERKN6google8protobuf7MessageE@Base 3.13.6
 _ZN10GPCCounter9MergeFromERKS_@Base 3.13.6
 _ZN10GPCCounterC1ERKS_@Base 3.13.6
 _ZN10GPCCounterC1Ev@Base 3.13.6
 _ZN10GPCCounterC2ERKS_@Base 3.13.6
 _ZN10GPCCounterC2Ev@Base 3.13.6
 _ZN10GPCCounterD0Ev@Base 3.13.6
 _ZN10GPCCounterD1Ev@Base 3.13.6
 _ZN10GPCCounterD2Ev@Base 3.13.6
 _ZN10RuleAction10SharedCtorEv@Base 3.13.6
 _ZN10RuleAction10SharedDtorEv@Base 3.13.6
 _ZN10RuleAction10descriptorEv@Base 3.13.6
 _ZN10RuleAction12InternalSwapEPS_@Base 3.13.6
 _ZN10RuleAction15ColourValue_MAXE@Base 3.13.6
 _ZN10RuleAction15ColourValue_MINE@Base 3.13.6
 _ZN10RuleAction16DECISION_UNKNOWNE@Base 3.13.6
 _ZN10RuleAction16default_instanceEv@Base 3.13.6
 _ZN10RuleAction18PacketDecision_MAXE@Base 3.13.6
 _ZN10RuleAction18PacketDecision_MINE@Base 3.13.6
 _ZN10RuleAction18clear_action_valueEv@Base 3.13.6
 _ZN10RuleAction18kColourFieldNumberE@Base 3.13.6
 _ZN10RuleAction19kPolicerFieldNumberE@Base 3.13.6
 _ZN10RuleAction20kDecisionFieldNumberE@Base 3.13.6
 _ZN10RuleAction21ColourValue_ARRAYSIZEE@Base 3.13.6
 _ZN10RuleAction21InitAsDefaultInstanceEv@Base 3.13.6
 _ZN10RuleAction21set_allocated_policerEP13PolicerParams@Base 3.13.6
 _ZN10RuleAction23kDesignationFieldNumberE@Base 3.13.6
 _ZN10RuleAction24PacketDecision_ARRAYSIZEE@Base 3.13.6
 _ZN10RuleAction27MergePartialFromCodedStreamEPN6google8protobuf2io16CodedInputStreamE@Base 3.13.6
 _ZN10RuleAction3REDE@Base 3.13.6
 _ZN10RuleAction4DROPE@Base 3.13.6
 _ZN10RuleAction4PASSE@Base 3.13.6
 _ZN10RuleAction4SwapEPS_@Base 3.13.6
 _ZN10RuleAction5ClearEv@Base 3.13.6
 _ZN10RuleAction5GREENE@Base 3.13.6
 _ZN10RuleAction6YELLOWE@Base 3.13.6
 _ZN10RuleAction8CopyFromERKN6google8protobuf7MessageE@Base 3.13.6
 _ZN10RuleAction8CopyFromERKS_@Base 3.13.6
 _ZN10RuleAction9MergeFromERKN6google8protobuf7MessageE@Base 3.13.6
 _ZN10RuleAction9MergeFromERKS_@Base 3.13.6
 _ZN10RuleActionC1ERKS_@Base 3.13.6
 _ZN10RuleActionC1Ev@Base 3.13.6
 _ZN10RuleActionC2ERKS_@Base 3.13.6
 _ZN10RuleActionC2Ev@Base 3.13.6
 _ZN10RuleActionD0Ev@Base 3.13.6
 _ZN10RuleActionD1Ev@Base 3.13.6
 _ZN10RuleActionD2Ev@Base 3.13.6
 _ZN10SessionLog10SharedCtorEv@Base 3.13.6
 _ZN10SessionLog10SharedDtorEv@Base 3.13.6
 _ZN10SessionLog10descriptorEv@Base 3.13.6
 _ZN10SessionLog12InternalSwapEPS_@Base 3.13.6
 _ZN10SessionLog16default_instanceEv@Base 3.13.6
 _ZN10SessionLog17kStateFieldNumberE@Base 3.13.6
 _ZN10SessionLog18kIfNameFieldNumberE@Base 3.13.6
 _ZN10SessionLog19kInBytesFieldNumberE@Base 3.13.6
 _ZN10SessionLog20kOutBytesFieldNumberE@Base 3.13.6
 _ZN10SessionLog20kProtocolFieldNumberE@Base 3.13.6
 _ZN10SessionLog21InitAsDefaultInstanceEv@Base 3.13.6
 _ZN10SessionLog21kDirectionFieldNumberE@Base 3.13.6
 _ZN10SessionLog21kEventTypeFieldNumberE@Base 3.13.6
 _ZN10SessionLog21kInPacketsFieldNumberE@Base 3.13.6
 _ZN10SessionLog21kSessionIdFieldNumberE@Base 3.13.6
 _ZN10SessionLog22kOutPacketsFieldNumberE@Base 3.13.6
 _ZN10SessionLog24kStateHistoryFieldNumberE@Base 3.13.6
 _ZN10SessionLog24kSubSessionIdFieldNumberE@Base 3.13.6
 _ZN10SessionLog26kStartTimestampFieldNumberE@Base 3.13.6
 _ZN10SessionLog26kSubscriberPortFieldNumberE@Base 3.13.6
 _ZN10SessionLog27MergePartialFromCodedStreamEPN6google8protobuf2io16CodedInputStreamE@Base 3.13.6
 _ZN10SessionLog27kDestinationPortFieldNumberE@Base 3.13.6
 _ZN10SessionLog28kCurrentTimestampFieldNumberE@Base 3.13.6
 _ZN10SessionLog28kNatAllocatedPortFieldNumberE@Base 3.13.6
 _ZN10SessionLog29kSubscriberAddressFieldNumberE@Base 3.13.6
 _ZN10SessionLog30kDestinationAddressFieldNumberE@Base 3.13.6
 _ZN10SessionLog31kNatAllocatedAddressFieldNumberE@Base 3.13.6
 _ZN10SessionLog32kNetworkRoundTripTimeFieldNumberE@Base 3.13.6
 _ZN10SessionLog33kInternetRoundTripTimeFieldNumberE@Base 3.13.6
 _ZN10SessionLog4SwapEPS_@Base 3.13.6
 _ZN10SessionLog5ClearEv@Base 3.13.6
 _ZN10SessionLog8CopyFromERKN6google8protobuf7MessageE@Base 3.13.6
 _ZN10SessionLog8CopyFromERKS_@Base 3.13.6
 _ZN10SessionLog9MergeFromERKN6google8protobuf7MessageE@Base 3.13.6
 _ZN10SessionLog9MergeFromERKS_@Base 3.13.6
 _ZN10SessionLogC1ERKS_@Base 3.13.6
 _ZN10SessionLogC1Ev@Base 3.13.6
 _ZN10SessionLogC2ERKS_@Base 3.13.6
 _ZN10SessionLogC2Ev@Base 3.13.6
 _ZN10SessionLogD0Ev@Base 3.13.6
 _ZN10SessionLogD1Ev@Base 3.13.6
 _ZN10SessionLogD2Ev@Base 3.13.6
 _ZN11PPPOEConfig10SharedCtorEv@Base 3.13.6
 _ZN11PPPOEConfig10SharedDtorEv@Base 3.13.6
 _ZN11PPPOEConfig10descriptorEv@Base 3.13.6
 _ZN11PPPOEConfig12InternalSwapEPS_@Base 3.13.6
 _ZN11PPPOEConfig16default_instanceEv@Base 3.13.6
 _ZN11PPPOEConfig17kEtherFieldNumberE@Base 3.13.6
 _ZN11PPPOEConfig19kPppnameFieldNumberE@Base 3.13.6
 _ZN11PPPOEConfig19kSessionFieldNumberE@Base 3.13.6
 _ZN11PPPOEConfig21InitAsDefaultInstanceEv@Base 3.13.6
 _ZN11PPPOEConfig21kPeerEtherFieldNumberE@Base 3.13.6
 _ZN11PPPOEConfig21kUndernameFieldNumberE@Base 3.13.6
 _ZN11PPPOEConfig27MergePartialFromCodedStreamEPN6google8protobuf2io16CodedInputStreamE@Base 3.13.6
 _ZN11PPPOEConfig4SwapEPS_@Base 3.13.6
 _ZN11PPPOEConfig5ClearEv@Base 3.13.6
 _ZN11PPPOEConfig8CopyFromERKN6google8protobuf7MessageE@Base 3.13.6
 _ZN11PPPOEConfig8CopyFromERKS_@Base 3.13.6
 _ZN11PPPOEConfig9MergeFromERKN6google8protobuf7MessageE@Base 3.13.6
 _ZN11PPPOEConfig9MergeFromERKS_@Base 3.13.6
 _ZN11PPPOEConfigC1ERKS_@Base 3.13.6
 _ZN11PPPOEConfigC1Ev@Base 3.13.6
 _ZN11PPPOEConfigC2ERKS_@Base 3.13.6
 _ZN11PPPOEConfigC2Ev@Base 3.13.6
 _ZN11PPPOEConfigD0Ev@Base 3.13.6
 _ZN11PPPOEConfigD1Ev@Base 3.13.6
 _ZN11PPPOEConfigD2Ev@Base 3.13.6
 _ZN11PauseConfig10SharedCtorEv@Base 3.13.6
 _ZN11PauseConfig10SharedDtorEv@Base 3.13.6
 _ZN11PauseConfig10descriptorEv@Base 3.13.6
 _ZN11PauseConfig11clear_mtypeEv@Base 3.13.6
 _ZN11PauseConfig12InternalSwapEPS_@Base 3.13.6
 _ZN11PauseConfig14PauseValue_MAXE@Base 3.13.6
 _ZN11PauseConfig14PauseValue_MINE@Base 3.13.6
 _ZN11PauseConfig16default_instanceEv@Base 3.13.6
 _ZN11PauseConfig19kPauseifFieldNumberE@Base 3.13.6
 _ZN11PauseConfig20PauseValue_ARRAYSIZEE@Base 3.13.6
 _ZN11PauseConfig21InitAsDefaultInstanceEv@Base 3.13.6
 _ZN11PauseConfig21set_allocated_pauseifEP25PauseConfig_PauseIfConfig@Base 3.13.6
 _ZN11PauseConfig27MergePartialFromCodedStreamEPN6google8protobuf2io16CodedInputStreamE@Base 3.13.6
 _ZN11PauseConfig2RXE@Base 3.13.6
 _ZN11PauseConfig2TXE@Base 3.13.6
 _ZN11PauseConfig4BOTHE@Base 3.13.6
 _ZN11PauseConfig4NONEE@Base 3.13.6
 _ZN11PauseConfig4SwapEPS_@Base 3.13.6
 _ZN11PauseConfig5ClearEv@Base 3.13.6
 _ZN11PauseConfig8CopyFromERKN6google8protobuf7MessageE@Base 3.13.6
 _ZN11PauseConfig8CopyFromERKS_@Base 3.13.6
 _ZN11PauseConfig9MergeFromERKN6google8protobuf7MessageE@Base 3.13.6
 _ZN11PauseConfig9MergeFromERKS_@Base 3.13.6
 _ZN11PauseConfigC1ERKS_@Base 3.13.6
 _ZN11PauseConfigC1Ev@Base 3.13.6
 _ZN11PauseConfigC2ERKS_@Base 3.13.6
 _ZN11PauseConfigC2Ev@Base 3.13.6
 _ZN11PauseConfigD0Ev@Base 3.13.6
 _ZN11PauseConfigD1Ev@Base 3.13.6
 _ZN11PauseConfigD2Ev@Base 3.13.6
 _ZN11RuleCounter10SharedCtorEv@Base 3.13.6
 _ZN11RuleCounter10SharedDtorEv@Base 3.13.6
 _ZN11RuleCounter10descriptorEv@Base 3.13.6
 _ZN11RuleCounter12InternalSwapEPS_@Base 3.13.6
 _ZN11RuleCounter15COUNTER_UNKNOWNE@Base 3.13.6
 _ZN11RuleCounter15CounterType_MAXE@Base 3.13.6
 _ZN11RuleCounter15CounterType_MINE@Base 3.13.6
 _ZN11RuleCounter16default_instanceEv@Base 3.13.6
 _ZN11RuleCounter16kNameFieldNumberE@Base 3.13.6
 _ZN11RuleCounter21CounterType_ARRAYSIZEE@Base 3.13.6
 _ZN11RuleCounter21InitAsDefaultInstanceEv@Base 3.13.6
 _ZN11RuleCounter23kCounterTypeFieldNumberE@Base 3.13.6
 _ZN11RuleCounter27MergePartialFromCodedStreamEPN6google8protobuf2io16CodedInputStreamE@Base 3.13.6
 _ZN11RuleCounter4AUTOE@Base 3.13.6
 _ZN11RuleCounter4SwapEPS_@Base 3.13.6
 _ZN11RuleCounter5ClearEv@Base 3.13.6
 _ZN11RuleCounter5NAMEDE@Base 3.13.6
 _ZN11RuleCounter8CopyFromERKN6google8protobuf7MessageE@Base 3.13.6
 _ZN11RuleCounter8CopyFromERKS_@Base 3.13.6
 _ZN11RuleCounter8DISABLEDE@Base 3.13.6
 _ZN11RuleCounter9MergeFromERKN6google8protobuf7MessageE@Base 3.13.6
 _ZN11RuleCounter9MergeFromERKS_@Base 3.13.6
 _ZN11RuleCounterC1ERKS_@Base 3.13.6
 _ZN11RuleCounterC1Ev@Base 3.13.6
 _ZN11RuleCounterC2ERKS_@Base 3.13.6
 _ZN11RuleCounterC2Ev@Base 3.13.6
 _ZN11RuleCounterD0Ev@Base 3.13.6
 _ZN11RuleCounterD1Ev@Base 3.13.6
 _ZN11RuleCounterD2Ev@Base 3.13.6
 _ZN11SpeedConfig10Duplex_MAXE@Base 3.13.6
 _ZN11SpeedConfig10Duplex_MINE@Base 3.13.6
 _ZN11SpeedConfig10SharedCtorEv@Base 3.13.6
 _ZN11SpeedConfig10SharedDtorEv@Base 3.13.6
 _ZN11SpeedConfig10descriptorEv@Base 3.13.6
 _ZN11SpeedConfig11clear_speedEv@Base 3.13.6
 _ZN11SpeedConfig12InternalSwapEPS_@Base 3.13.6
 _ZN11SpeedConfig16Duplex_ARRAYSIZEE@Base 3.13.6
 _ZN11SpeedConfig16default_instanceEv@Base 3.13.6
 _ZN11SpeedConfig16kAutoFieldNumberE@Base 3.13.6
 _ZN11SpeedConfig18kIfnameFieldNumberE@Base 3.13.6
 _ZN11SpeedConfig20kNumspeedFieldNumberE@Base 3.13.6
 _ZN11SpeedConfig21InitAsDefaultInstanceEv@Base 3.13.6
 _ZN11SpeedConfig24kDuplexOptionFieldNumberE@Base 3.13.6
 _ZN11SpeedConfig27MergePartialFromCodedStreamEPN6google8protobuf2io16CodedInputStreamE@Base 3.13.6
 _ZN11SpeedConfig4AUTOE@Base 3.13.6
 _ZN11SpeedConfig4FULLE@Base 3.13.6
 _ZN11SpeedConfig4HALFE@Base 3.13.6
 _ZN11SpeedConfig4SwapEPS_@Base 3.13.6
 _ZN11SpeedConfig5ClearEv@Base 3.13.6
 _ZN11SpeedConfig8CopyFromERKN6google8protobuf7MessageE@Base 3.13.6
 _ZN11SpeedConfig8CopyFromERKS_@Base 3.13.6
 _ZN11SpeedConfig9MergeFromERKN6google8protobuf7MessageE@Base 3.13.6
 _ZN11SpeedConfig9MergeFromERKS_@Base 3.13.6
 _ZN11SpeedConfigC1ERKS_@Base 3.13.6
 _ZN11SpeedConfigC1Ev@Base 3.13.6
 _ZN11SpeedConfigC2ERKS_@Base 3.13.6
 _ZN11SpeedConfigC2Ev@Base 3.13.6
 _ZN11SpeedConfigD0Ev@Base 3.13.6
 _ZN11SpeedConfigD1Ev@Base 3.13.6
 _ZN11SpeedConfigD2Ev@Base 3.13.6
 _ZN11SynceConfig10Action_MAXE@Base 3.13.6
 _ZN11SynceConfig10Action_MINE@Base 3.13.6
 _ZN11SynceConfig10SharedCtorEv@Base 3.13.6
 _ZN11SynceConfig10SharedDtorEv@Base 3.13.6
 _ZN11SynceConfig10descriptorEv@Base 3.13.6
 _ZN11SynceConfig12InternalSwapEPS_@Base 3.13.6
 _ZN11SynceConfig16Action_ARRAYSIZEE@Base 3.13.6
 _ZN11SynceConfig16default_instanceEv@Base 3.13.6
 _ZN11SynceConfig17SYNCE_ENABLE_INTFE@Base 3.13.6
 _ZN11SynceConfig17SYNCE_SET_CLK_SRCE@Base 3.13.6
 _ZN11SynceConfig18SYNCE_DISABLE_INTFE@Base 3.13.6
 _ZN11SynceConfig18kActionFieldNumberE@Base 3.13.6
 _ZN11SynceConfig19kIfindexFieldNumberE@Base 3.13.6
 _ZN11SynceConfig21InitAsDefaultInstanceEv@Base 3.13.6
 _ZN11SynceConfig27MergePartialFromCodedStreamEPN6google8protobuf2io16CodedInputStreamE@Base 3.13.6
 _ZN11SynceConfig4SwapEPS_@Base 3.13.6
 _ZN11SynceConfig5ClearEv@Base 3.13.6
 _ZN11SynceConfig8CopyFromERKN6google8protobuf7MessageE@Base 3.13.6
 _ZN11SynceConfig8CopyFromERKS_@Base 3.13.6
 _ZN11SynceConfig9MergeFromERKN6google8protobuf7MessageE@Base 3.13.6
 _ZN11SynceConfig9MergeFromERKS_@Base 3.13.6
 _ZN11SynceConfigC1ERKS_@Base 3.13.6
 _ZN11SynceConfigC1Ev@Base 3.13.6
 _ZN11SynceConfigC2ERKS_@Base 3.13.6
 _ZN11SynceConfigC2Ev@Base 3.13.6
 _ZN11SynceConfigD0Ev@Base 3.13.6
 _ZN11SynceConfigD1Ev@Base 3.13.6
 _ZN11SynceConfigD2Ev@Base 3.13.6
 _ZN12DPSessionMsg10SharedCtorEv@Base 3.13.34
 _ZN12DPSessionMsg10SharedDtorEv@Base 3.13.34
 _ZN12DPSessionMsg10descriptorEv@Base 3.13.34
 _ZN12DPSessionMsg12InternalSwapEPS_@Base 3.13.34
 _ZN12DPSessionMsg16default_instanceEv@Base 3.13.34
 _ZN12DPSessionMsg16kDsIdFieldNumberE@Base 3.13.34
 _ZN12DPSessionMsg17kDsKeyFieldNumberE@Base 3.13.34
 _ZN12DPSessionMsg19kDsStateFieldNumberE@Base 3.13.34
 _ZN12DPSessionMsg21InitAsDefaultInstanceEv@Base 3.13.34
 _ZN12DPSessionMsg22kDsCountersFieldNumberE@Base 3.13.34
 _ZN12DPSessionMsg24kDsNpfSessionFieldNumberE@Base 3.13.34
 _ZN12DPSessionMsg27MergePartialFromCodedStreamEPN6google8protobuf2io16CodedInputStreamE@Base 3.13.34
 _ZN12DPSessionMsg4SwapEPS_@Base 3.13.34
 _ZN12DPSessionMsg5ClearEv@Base 3.13.34
 _ZN12DPSessionMsg8CopyFromERKN6google8protobuf7MessageE@Base 3.13.34
 _ZN12DPSessionMsg8CopyFromERKS_@Base 3.13.34
 _ZN12DPSessionMsg9MergeFromERKN6google8protobuf7MessageE@Base 3.13.34
 _ZN12DPSessionMsg9MergeFromERKS_@Base 3.13.34
 _ZN12DPSessionMsgC1ERKS_@Base 3.13.34
 _ZN12DPSessionMsgC1Ev@Base 3.13.34
 _ZN12DPSessionMsgC2ERKS_@Base 3.13.34
 _ZN12DPSessionMsgC2Ev@Base 3.13.34
 _ZN12DPSessionMsgD0Ev@Base 3.13.34
 _ZN12DPSessionMsgD1Ev@Base 3.13.34
 _ZN12DPSessionMsgD2Ev@Base 3.13.34
 _ZN12NbrResConfig10AGING_TIMEE@Base 3.13.6
 _ZN12NbrResConfig10Action_MAXE@Base 3.13.6
 _ZN12NbrResConfig10Action_MINE@Base 3.13.6
 _ZN12NbrResConfig10SharedCtorEv@Base 3.13.6
 _ZN12NbrResConfig10SharedDtorEv@Base 3.13.6
 _ZN12NbrResConfig10descriptorEv@Base 3.13.6
 _ZN12NbrResConfig12InternalSwapEPS_@Base 3.13.6
 _ZN12NbrResConfig14Prot_ARRAYSIZEE@Base 3.13.6
 _ZN12NbrResConfig15Param_ARRAYSIZEE@Base 3.13.6
 _ZN12NbrResConfig16Action_ARRAYSIZEE@Base 3.13.6
 _ZN12NbrResConfig16default_instanceEv@Base 3.13.6
 _ZN12NbrResConfig16kProtFieldNumberE@Base 3.13.6
 _ZN12NbrResConfig17kParamFieldNumberE@Base 3.13.6
 _ZN12NbrResConfig17kValueFieldNumberE@Base 3.13.6
 _ZN12NbrResConfig18kActionFieldNumberE@Base 3.13.6
 _ZN12NbrResConfig18kIfnameFieldNumberE@Base 3.13.6
 _ZN12NbrResConfig21InitAsDefaultInstanceEv@Base 3.13.6
 _ZN12NbrResConfig27MergePartialFromCodedStreamEPN6google8protobuf2io16CodedInputStreamE@Base 3.13.6
 _ZN12NbrResConfig3ARPE@Base 3.13.6
 _ZN12NbrResConfig3ND6E@Base 3.13.6
 _ZN12NbrResConfig3SETE@Base 3.13.6
 _ZN12NbrResConfig4SwapEPS_@Base 3.13.6
 _ZN12NbrResConfig5ClearEv@Base 3.13.6
 _ZN12NbrResConfig6DELETEE@Base 3.13.6
 _ZN12NbrResConfig8CopyFromERKN6google8protobuf7MessageE@Base 3.13.6
 _ZN12NbrResConfig8CopyFromERKS_@Base 3.13.6
 _ZN12NbrResConfig8Prot_MAXE@Base 3.13.6
 _ZN12NbrResConfig8Prot_MINE@Base 3.13.6
 _ZN12NbrResConfig9MAX_ENTRYE@Base 3.13.6
 _ZN12NbrResConfig9MergeFromERKN6google8protobuf7MessageE@Base 3.13.6
 _ZN12NbrResConfig9MergeFromERKS_@Base 3.13.6
 _ZN12NbrResConfig9Param_MAXE@Base 3.13.6
 _ZN12NbrResConfig9Param_MINE@Base 3.13.6
 _ZN12NbrResConfig9RES_TOKENE@Base 3.13.6
 _ZN12NbrResConfigC1ERKS_@Base 3.13.6
 _ZN12NbrResConfigC1Ev@Base 3.13.6
 _ZN12NbrResConfigC2ERKS_@Base 3.13.6
 _ZN12NbrResConfigC2Ev@Base 3.13.6
 _ZN12NbrResConfigD0Ev@Base 3.13.6
 _ZN12NbrResConfigD1Ev@Base 3.13.6
 _ZN12NbrResConfigD2Ev@Base 3.13.6
 _ZN12TCPMSSConfig10SharedCtorEv@Base 3.13.6
 _ZN12TCPMSSConfig10SharedDtorEv@Base 3.13.6
 _ZN12TCPMSSConfig10TCP_MSS_V4E@Base 3.13.6
 _ZN12TCPMSSConfig10TCP_MSS_V6E@Base 3.13.6
 _ZN12TCPMSSConfig10descriptorEv@Base 3.13.6
 _ZN12TCPMSSConfig11MTUType_MAXE@Base 3.13.6
 _ZN12TCPMSSConfig11MTUType_MINE@Base 3.13.6
 _ZN12TCPMSSConfig12InternalSwapEPS_@Base 3.13.6
 _ZN12TCPMSSConfig14kAfFieldNumberE@Base 3.13.6
 _ZN12TCPMSSConfig16default_instanceEv@Base 3.13.6
 _ZN12TCPMSSConfig17AddressFamily_MAXE@Base 3.13.6
 _ZN12TCPMSSConfig17AddressFamily_MINE@Base 3.13.6
 _ZN12TCPMSSConfig17MTUType_ARRAYSIZEE@Base 3.13.6
 _ZN12TCPMSSConfig17kValueFieldNumberE@Base 3.13.6
 _ZN12TCPMSSConfig18kIfnameFieldNumberE@Base 3.13.6
 _ZN12TCPMSSConfig20kIsEnableFieldNumberE@Base 3.13.6
 _ZN12TCPMSSConfig21InitAsDefaultInstanceEv@Base 3.13.6
 _ZN12TCPMSSConfig21kMtuOptionFieldNumberE@Base 3.13.6
 _ZN12TCPMSSConfig23AddressFamily_ARRAYSIZEE@Base 3.13.6
 _ZN12TCPMSSConfig27MergePartialFromCodedStreamEPN6google8protobuf2io16CodedInputStreamE@Base 3.13.6
 _ZN12TCPMSSConfig3MTUE@Base 3.13.6
 _ZN12TCPMSSConfig4NONEE@Base 3.13.6
 _ZN12TCPMSSConfig4SwapEPS_@Base 3.13.6
 _ZN12TCPMSSConfig5ClearEv@Base 3.13.6
 _ZN12TCPMSSConfig5LIMITE@Base 3.13.6
 _ZN12TCPMSSConfig8CopyFromERKN6google8protobuf7MessageE@Base 3.13.6
 _ZN12TCPMSSConfig8CopyFromERKS_@Base 3.13.6
 _ZN12TCPMSSConfig9MTU_MINUSE@Base 3.13.6
 _ZN12TCPMSSConfig9MergeFromERKN6google8protobuf7MessageE@Base 3.13.6
 _ZN12TCPMSSConfig9MergeFromERKS_@Base 3.13.6
 _ZN12TCPMSSConfigC1ERKS_@Base 3.13.6
 _ZN12TCPMSSConfigC1Ev@Base 3.13.6
 _ZN12TCPMSSConfigC2ERKS_@Base 3.13.6
 _ZN12TCPMSSConfigC2Ev@Base 3.13.6
 _ZN12TCPMSSConfigD0Ev@Base 3.13.6
 _ZN12TCPMSSConfigD1Ev@Base 3.13.6
 _ZN12TCPMSSConfigD2Ev@Base 3.13.6
 _ZN12TCPWindowMsg10SharedCtorEv@Base 3.13.34
 _ZN12TCPWindowMsg10SharedDtorEv@Base 3.13.34
 _ZN12TCPWindowMsg10descriptorEv@Base 3.13.34
 _ZN12TCPWindowMsg12InternalSwapEPS_@Base 3.13.34
 _ZN12TCPWindowMsg16default_instanceEv@Base 3.13.34
 _ZN12TCPWindowMsg17kTwEndFieldNumberE@Base 3.13.34
 _ZN12TCPWindowMsg20kTwMaxendFieldNumberE@Base 3.13.34
 _ZN12TCPWindowMsg20kTwMaxwinFieldNumberE@Base 3.13.34
 _ZN12TCPWindowMsg20kTwWscaleFieldNumberE@Base 3.13.34
 _ZN12TCPWindowMsg21InitAsDefaultInstanceEv@Base 3.13.34
 _ZN12TCPWindowMsg27MergePartialFromCodedStreamEPN6google8protobuf2io16CodedInputStreamE@Base 3.13.34
 _ZN12TCPWindowMsg4SwapEPS_@Base 3.13.34
 _ZN12TCPWindowMsg5ClearEv@Base 3.13.34
 _ZN12TCPWindowMsg8CopyFromERKN6google8protobuf7MessageE@Base 3.13.34
 _ZN12TCPWindowMsg8CopyFromERKS_@Base 3.13.34
 _ZN12TCPWindowMsg9MergeFromERKN6google8protobuf7MessageE@Base 3.13.34
 _ZN12TCPWindowMsg9MergeFromERKS_@Base 3.13.34
 _ZN12TCPWindowMsgC1ERKS_@Base 3.13.34
 _ZN12TCPWindowMsgC1Ev@Base 3.13.34
 _ZN12TCPWindowMsgC2ERKS_@Base 3.13.34
 _ZN12TCPWindowMsgC2Ev@Base 3.13.34
 _ZN12TCPWindowMsgD0Ev@Base 3.13.34
 _ZN12TCPWindowMsgD1Ev@Base 3.13.34
 _ZN12TCPWindowMsgD2Ev@Base 3.13.34
 _ZN12VFPSetConfig10Action_MAXE@Base 3.13.6
 _ZN12VFPSetConfig10Action_MINE@Base 3.13.6
 _ZN12VFPSetConfig10SharedCtorEv@Base 3.13.6
 _ZN12VFPSetConfig10SharedDtorEv@Base 3.13.6
 _ZN12VFPSetConfig10descriptorEv@Base 3.13.6
 _ZN12VFPSetConfig11VFPType_MAXE@Base 3.13.6
 _ZN12VFPSetConfig11VFPType_MINE@Base 3.13.6
 _ZN12VFPSetConfig12InternalSwapEPS_@Base 3.13.6
 _ZN12VFPSetConfig14VFP_ACTION_GETE@Base 3.13.6
 _ZN12VFPSetConfig14VFP_ACTION_PUTE@Base 3.13.6
 _ZN12VFPSetConfig14VFP_S2S_CRYPTOE@Base 3.13.6
 _ZN12VFPSetConfig16Action_ARRAYSIZEE@Base 3.13.6
 _ZN12VFPSetConfig16default_instanceEv@Base 3.13.6
 _ZN12VFPSetConfig16kTypeFieldNumberE@Base 3.13.6
 _ZN12VFPSetConfig17VFPType_ARRAYSIZEE@Base 3.13.6
 _ZN12VFPSetConfig18kActionFieldNumberE@Base 3.13.6
 _ZN12VFPSetConfig18kIfNameFieldNumberE@Base 3.13.6
 _ZN12VFPSetConfig19kIfIndexFieldNumberE@Base 3.13.6
 _ZN12VFPSetConfig21InitAsDefaultInstanceEv@Base 3.13.6
 _ZN12VFPSetConfig27MergePartialFromCodedStreamEPN6google8protobuf2io16CodedInputStreamE@Base 3.13.6
 _ZN12VFPSetConfig4SwapEPS_@Base 3.13.6
 _ZN12VFPSetConfig5ClearEv@Base 3.13.6
 _ZN12VFPSetConfig8CopyFromERKN6google8protobuf7MessageE@Base 3.13.6
 _ZN12VFPSetConfig8CopyFromERKS_@Base 3.13.6
 _ZN12VFPSetConfig9MergeFromERKN6google8protobuf7MessageE@Base 3.13.6
 _ZN12VFPSetConfig9MergeFromERKS_@Base 3.13.6
 _ZN12VFPSetConfigC1ERKS_@Base 3.13.6
 _ZN12VFPSetConfigC1Ev@Base 3.13.6
 _ZN12VFPSetConfigC2ERKS_@Base 3.13.6
 _ZN12VFPSetConfigC2Ev@Base 3.13.6
 _ZN12VFPSetConfigD0Ev@Base 3.13.6
 _ZN12VFPSetConfigD1Ev@Base 3.13.6
 _ZN12VFPSetConfigD2Ev@Base 3.13.6
 _ZN13ConstraintLog10SharedCtorEv@Base 3.13.6
 _ZN13ConstraintLog10SharedDtorEv@Base 3.13.6
 _ZN13ConstraintLog10descriptorEv@Base 3.13.6
 _ZN13ConstraintLog12InternalSwapEPS_@Base 3.13.6
 _ZN13ConstraintLog16default_instanceEv@Base 3.13.6
 _ZN13ConstraintLog16kDescFieldNumberE@Base 3.13.6
 _ZN13ConstraintLog17kCountFieldNumberE@Base 3.13.6
 _ZN13ConstraintLog18kIfNameFieldNumberE@Base 3.13.6
 _ZN13ConstraintLog20kMaxCountFieldNumberE@Base 3.13.6
 _ZN13ConstraintLog20kPoolNameFieldNumberE@Base 3.13.6
 _ZN13ConstraintLog20kProtocolFieldNumberE@Base 3.13.6
 _ZN13ConstraintLog21InitAsDefaultInstanceEv@Base 3.13.6
 _ZN13ConstraintLog21kEventTypeFieldNumberE@Base 3.13.6
 _ZN13ConstraintLog21kSessionIdFieldNumberE@Base 3.13.6
 _ZN13ConstraintLog21kTimestampFieldNumberE@Base 3.13.6
 _ZN13ConstraintLog26kSubscriberPortFieldNumberE@Base 3.13.6
 _ZN13ConstraintLog27MergePartialFromCodedStreamEPN6google8protobuf2io16CodedInputStreamE@Base 3.13.6
 _ZN13ConstraintLog27kConstraintLimitFieldNumberE@Base 3.13.6
 _ZN13ConstraintLog28kNatAllocatedPortFieldNumberE@Base 3.13.6
 _ZN13ConstraintLog29kSubscriberAddressFieldNumberE@Base 3.13.6
 _ZN13ConstraintLog31kNatAllocatedAddressFieldNumberE@Base 3.13.6
 _ZN13ConstraintLog4SwapEPS_@Base 3.13.6
 _ZN13ConstraintLog5ClearEv@Base 3.13.6
 _ZN13ConstraintLog8CopyFromERKN6google8protobuf7MessageE@Base 3.13.6
 _ZN13ConstraintLog8CopyFromERKS_@Base 3.13.6
 _ZN13ConstraintLog9MergeFromERKN6google8protobuf7MessageE@Base 3.13.6
 _ZN13ConstraintLog9MergeFromERKS_@Base 3.13.6
 _ZN13ConstraintLogC1ERKS_@Base 3.13.6
 _ZN13ConstraintLogC1Ev@Base 3.13.6
 _ZN13ConstraintLogC2ERKS_@Base 3.13.6
 _ZN13ConstraintLogC2Ev@Base 3.13.6
 _ZN13ConstraintLogD0Ev@Base 3.13.6
 _ZN13ConstraintLogD1Ev@Base 3.13.6
 _ZN13ConstraintLogD2Ev@Base 3.13.6
 _ZN13NPFSessionMsg10SharedCtorEv@Base 3.13.34
 _ZN13NPFSessionMsg10SharedDtorEv@Base 3.13.34
 _ZN13NPFSessionMsg10descriptorEv@Base 3.13.34
 _ZN13NPFSessionMsg12InternalSwapEPS_@Base 3.13.34
 _ZN13NPFSessionMsg16default_instanceEv@Base 3.13.34
 _ZN13NPFSessionMsg19kNsFlagsFieldNumberE@Base 3.13.34
 _ZN13NPFSessionMsg19kNsStateFieldNumberE@Base 3.13.34
 _ZN13NPFSessionMsg21InitAsDefaultInstanceEv@Base 3.13.34
 _ZN13NPFSessionMsg22kNsRuleHashFieldNumberE@Base 3.13.34
 _ZN13NPFSessionMsg27MergePartialFromCodedStreamEPN6google8protobuf2io16CodedInputStreamE@Base 3.13.34
 _ZN13NPFSessionMsg27kNsRprocRuleHashFieldNumberE@Base 3.13.34
 _ZN13NPFSessionMsg4SwapEPS_@Base 3.13.34
 _ZN13NPFSessionMsg5ClearEv@Base 3.13.34
 _ZN13NPFSessionMsg8CopyFromERKN6google8protobuf7MessageE@Base 3.13.34
 _ZN13NPFSessionMsg8CopyFromERKS_@Base 3.13.34
 _ZN13NPFSessionMsg9MergeFromERKN6google8protobuf7MessageE@Base 3.13.34
 _ZN13NPFSessionMsg9MergeFromERKS_@Base 3.13.34
 _ZN13NPFSessionMsgC1ERKS_@Base 3.13.34
 _ZN13NPFSessionMsgC1Ev@Base 3.13.34
 _ZN13NPFSessionMsgC2ERKS_@Base 3.13.34
 _ZN13NPFSessionMsgC2Ev@Base 3.13.34
 _ZN13NPFSessionMsgD0Ev@Base 3.13.34
 _ZN13NPFSessionMsgD1Ev@Base 3.13.34
 _ZN13NPFSessionMsgD2Ev@Base 3.13.34
 _ZN13PolicerParams10SharedCtorEv@Base 3.13.6
 _ZN13PolicerParams10SharedDtorEv@Base 3.13.6
 _ZN13PolicerParams10descriptorEv@Base 3.13.6
 _ZN13PolicerParams12InternalSwapEPS_@Base 3.13.6
 _ZN13PolicerParams14kBwFieldNumberE@Base 3.13.6
 _ZN13PolicerParams16default_instanceEv@Base 3.13.6
 _ZN13PolicerParams17kBurstFieldNumberE@Base 3.13.6
 _ZN13PolicerParams20kExcessBwFieldNumberE@Base 3.13.6
 _ZN13PolicerParams21InitAsDefaultInstanceEv@Base 3.13.6
 _ZN13PolicerParams21kAwarenessFieldNumberE@Base 3.13.6
 _ZN13PolicerParams23kExcessBurstFieldNumberE@Base 3.13.6
 _ZN13PolicerParams27MergePartialFromCodedStreamEPN6google8protobuf2io16CodedInputStreamE@Base 3.13.6
 _ZN13PolicerParams4SwapEPS_@Base 3.13.6
 _ZN13PolicerParams5ClearEv@Base 3.13.6
 _ZN13PolicerParams8CopyFromERKN6google8protobuf7MessageE@Base 3.13.6
 _ZN13PolicerParams8CopyFromERKS_@Base 3.13.6
 _ZN13PolicerParams9MergeFromERKN6google8protobuf7MessageE@Base 3.13.6
 _ZN13PolicerParams9MergeFromERKS_@Base 3.13.6
 _ZN13PolicerParamsC1ERKS_@Base 3.13.6
 _ZN13PolicerParamsC1Ev@Base 3.13.6
 _ZN13PolicerParamsC2ERKS_@Base 3.13.6
 _ZN13PolicerParamsC2Ev@Base 3.13.6
 _ZN13PolicerParamsD0Ev@Base 3.13.6
 _ZN13PolicerParamsD1Ev@Base 3.13.6
 _ZN13PolicerParamsD2Ev@Base 3.13.6
 _ZN13SubscriberLog10SharedCtorEv@Base 3.13.6
 _ZN13SubscriberLog10SharedDtorEv@Base 3.13.6
 _ZN13SubscriberLog10descriptorEv@Base 3.13.6
 _ZN13SubscriberLog12InternalSwapEPS_@Base 3.13.6
 _ZN13SubscriberLog16default_instanceEv@Base 3.13.6
 _ZN13SubscriberLog19kInBytesFieldNumberE@Base 3.13.6
 _ZN13SubscriberLog20kOutBytesFieldNumberE@Base 3.13.6
 _ZN13SubscriberLog21InitAsDefaultInstanceEv@Base 3.13.6
 _ZN13SubscriberLog21kEventTypeFieldNumberE@Base 3.13.6
 _ZN13SubscriberLog21kInPacketsFieldNumberE@Base 3.13.6
 _ZN13SubscriberLog22kOutPacketsFieldNumberE@Base 3.13.6
 _ZN13SubscriberLog24kEndTimestampFieldNumberE@Base 3.13.6
 _ZN13SubscriberLog24kSessionCountFieldNumberE@Base 3.13.6
 _ZN13SubscriberLog26kStartTimestampFieldNumberE@Base 3.13.6
 _ZN13SubscriberLog27MergePartialFromCodedStreamEPN6google8protobuf2io16CodedInputStreamE@Base 3.13.6
 _ZN13SubscriberLog29kSubscriberAddressFieldNumberE@Base 3.13.6
 _ZN13SubscriberLog4SwapEPS_@Base 3.13.6
 _ZN13SubscriberLog5ClearEv@Base 3.13.6
 _ZN13SubscriberLog8CopyFromERKN6google8protobuf7MessageE@Base 3.13.6
 _ZN13SubscriberLog8CopyFromERKS_@Base 3.13.6
 _ZN13SubscriberLog9MergeFromERKN6google8protobuf7MessageE@Base 3.13.6
 _ZN13SubscriberLog9MergeFromERKS_@Base 3.13.6
 _ZN13SubscriberLogC1ERKS_@Base 3.13.6
 _ZN13SubscriberLogC1Ev@Base 3.13.6
 _ZN13SubscriberLogC2ERKS_@Base 3.13.6
 _ZN13SubscriberLogC2Ev@Base 3.13.6
 _ZN13SubscriberLogD0Ev@Base 3.13.6
 _ZN13SubscriberLogD1Ev@Base 3.13.6
 _ZN13SubscriberLogD2Ev@Base 3.13.6
 _ZN14BreakoutConfig10Action_MAXE@Base 3.13.6
 _ZN14BreakoutConfig10Action_MINE@Base 3.13.6
 _ZN14BreakoutConfig10SharedCtorEv@Base 3.13.6
 _ZN14BreakoutConfig10SharedDtorEv@Base 3.13.6
 _ZN14BreakoutConfig10descriptorEv@Base 3.13.6
 _ZN14BreakoutConfig11clear_mtypeEv@Base 3.13.6
 _ZN14BreakoutConfig12InternalSwapEPS_@Base 3.13.6
 _ZN14BreakoutConfig16Action_ARRAYSIZEE@Base 3.13.6
 _ZN14BreakoutConfig16default_instanceEv@Base 3.13.6
 _ZN14BreakoutConfig21InitAsDefaultInstanceEv@Base 3.13.6
 _ZN14BreakoutConfig22kBreakoutifFieldNumberE@Base 3.13.6
 _ZN14BreakoutConfig24set_allocated_breakoutifEP31BreakoutConfig_BreakoutIfConfig@Base 3.13.6
 _ZN14BreakoutConfig27MergePartialFromCodedStreamEPN6google8protobuf2io16CodedInputStreamE@Base 3.13.6
 _ZN14BreakoutConfig3SETE@Base 3.13.6
 _ZN14BreakoutConfig4SwapEPS_@Base 3.13.6
 _ZN14BreakoutConfig5ClearEv@Base 3.13.6
 _ZN14BreakoutConfig6DELETEE@Base 3.13.6
 _ZN14BreakoutConfig8CopyFromERKN6google8protobuf7MessageE@Base 3.13.6
 _ZN14BreakoutConfig8CopyFromERKS_@Base 3.13.6
 _ZN14BreakoutConfig9MergeFromERKN6google8protobuf7MessageE@Base 3.13.6
 _ZN14BreakoutConfig9MergeFromERKS_@Base 3.13.6
 _ZN14BreakoutConfigC1ERKS_@Base 3.13.6
 _ZN14BreakoutConfigC1Ev@Base 3.13.6
 _ZN14BreakoutConfigC2ERKS_@Base 3.13.6
 _ZN14BreakoutConfigC2Ev@Base 3.13.6
 _ZN14BreakoutConfigD0Ev@Base 3.13.6
 _ZN14BreakoutConfigD1Ev@Base 3.13.6
 _ZN14BreakoutConfigD2Ev@Base 3.13.6
 _ZN14MacLimitConfig10Action_MAXE@Base 3.13.6
 _ZN14MacLimitConfig10Action_MINE@Base 3.13.6
 _ZN14MacLimitConfig10SharedCtorEv@Base 3.13.6
 _ZN14MacLimitConfig10SharedDtorEv@Base 3.13.6
 _ZN14MacLimitConfig10descriptorEv@Base 3.13.6
 _ZN14MacLimitConfig11clear_mtypeEv@Base 3.13.6
 _ZN14MacLimitConfig12InternalSwapEPS_@Base 3.13.6
 _ZN14MacLimitConfig16Action_ARRAYSIZEE@Base 3.13.6
 _ZN14MacLimitConfig16default_instanceEv@Base 3.13.6
 _ZN14MacLimitConfig18kIfvlanFieldNumberE@Base 3.13.6
 _ZN14MacLimitConfig19kProfileFieldNumberE@Base 3.13.6
 _ZN14MacLimitConfig20set_allocated_ifvlanEP35MacLimitConfig_MacLimitIfVLANConfig@Base 3.13.6
 _ZN14MacLimitConfig21InitAsDefaultInstanceEv@Base 3.13.6
 _ZN14MacLimitConfig21set_allocated_profileEP36MacLimitConfig_MacLimitProfileConfig@Base 3.13.6
 _ZN14MacLimitConfig27MergePartialFromCodedStreamEPN6google8protobuf2io16CodedInputStreamE@Base 3.13.6
 _ZN14MacLimitConfig3SETE@Base 3.13.6
 _ZN14MacLimitConfig4SwapEPS_@Base 3.13.6
 _ZN14MacLimitConfig5ClearEv@Base 3.13.6
 _ZN14MacLimitConfig6DELETEE@Base 3.13.6
 _ZN14MacLimitConfig8CopyFromERKN6google8protobuf7MessageE@Base 3.13.6
 _ZN14MacLimitConfig8CopyFromERKS_@Base 3.13.6
 _ZN14MacLimitConfig9MergeFromERKN6google8protobuf7MessageE@Base 3.13.6
 _ZN14MacLimitConfig9MergeFromERKS_@Base 3.13.6
 _ZN14MacLimitConfigC1ERKS_@Base 3.13.6
 _ZN14MacLimitConfigC1Ev@Base 3.13.6
 _ZN14MacLimitConfigC2ERKS_@Base 3.13.6
 _ZN14MacLimitConfigC2Ev@Base 3.13.6
 _ZN14MacLimitConfigD0Ev@Base 3.13.6
 _ZN14MacLimitConfigD1Ev@Base 3.13.6
 _ZN14MacLimitConfigD2Ev@Base 3.13.6
 _ZN14XConnectConfig10SharedCtorEv@Base 3.13.6
 _ZN14XConnectConfig10SharedDtorEv@Base 3.13.6
 _ZN14XConnectConfig10descriptorEv@Base 3.13.6
 _ZN14XConnectConfig12InternalSwapEPS_@Base 3.13.6
 _ZN14XConnectConfig15CommandType_MAXE@Base 3.13.6
 _ZN14XConnectConfig15CommandType_MINE@Base 3.13.6
 _ZN14XConnectConfig15kCmdFieldNumberE@Base 3.13.6
 _ZN14XConnectConfig16default_instanceEv@Base 3.13.6
 _ZN14XConnectConfig20kDpIfnameFieldNumberE@Base 3.13.6
 _ZN14XConnectConfig21CommandType_ARRAYSIZEE@Base 3.13.6
 _ZN14XConnectConfig21InitAsDefaultInstanceEv@Base 3.13.6
 _ZN14XConnectConfig21kNewIfnameFieldNumberE@Base 3.13.6
 _ZN14XConnectConfig27MergePartialFromCodedStreamEPN6google8protobuf2io16CodedInputStreamE@Base 3.13.6
 _ZN14XConnectConfig3ADDE@Base 3.13.6
 _ZN14XConnectConfig4SwapEPS_@Base 3.13.6
 _ZN14XConnectConfig5ClearEv@Base 3.13.6
 _ZN14XConnectConfig6REMOVEE@Base 3.13.6
 _ZN14XConnectConfig6UPDATEE@Base 3.13.6
 _ZN14XConnectConfig8CopyFromERKN6google8protobuf7MessageE@Base 3.13.6
 _ZN14XConnectConfig8CopyFromERKS_@Base 3.13.6
 _ZN14XConnectConfig9MergeFromERKN6google8protobuf7MessageE@Base 3.13.6
 _ZN14XConnectConfig9MergeFromERKS_@Base 3.13.6
 _ZN14XConnectConfigC1ERKS_@Base 3.13.6
 _ZN14XConnectConfigC1Ev@Base 3.13.6
 _ZN14XConnectConfigC2ERKS_@Base 3.13.6
 _ZN14XConnectConfigC2Ev@Base 3.13.6
 _ZN14XConnectConfigD0Ev@Base 3.13.6
 _ZN14XConnectConfigD1Ev@Base 3.13.6
 _ZN14XConnectConfigD2Ev@Base 3.13.6
 _ZN15DPSessionKeyMsg10SharedCtorEv@Base 3.13.34
 _ZN15DPSessionKeyMsg10SharedDtorEv@Base 3.13.34
 _ZN15DPSessionKeyMsg10descriptorEv@Base 3.13.34
 _ZN15DPSessionKeyMsg12InternalSwapEPS_@Base 3.13.34
 _ZN15DPSessionKeyMsg16default_instanceEv@Base 3.13.34
 _ZN15DPSessionKeyMsg19kSkFlagsFieldNumberE@Base 3.13.34
 _ZN15DPSessionKeyMsg20kSkIfnameFieldNumberE@Base 3.13.34
 _ZN15DPSessionKeyMsg21InitAsDefaultInstanceEv@Base 3.13.34
 _ZN15DPSessionKeyMsg21kSkAddridsFieldNumberE@Base 3.13.34
 _ZN15DPSessionKeyMsg22kSkProtocolFieldNumberE@Base 3.13.34
 _ZN15DPSessionKeyMsg27MergePartialFromCodedStreamEPN6google8protobuf2io16CodedInputStreamE@Base 3.13.34
 _ZN15DPSessionKeyMsg4SwapEPS_@Base 3.13.34
 _ZN15DPSessionKeyMsg5ClearEv@Base 3.13.34
 _ZN15DPSessionKeyMsg8CopyFromERKN6google8protobuf7MessageE@Base 3.13.34
 _ZN15DPSessionKeyMsg8CopyFromERKS_@Base 3.13.34
 _ZN15DPSessionKeyMsg9MergeFromERKN6google8protobuf7MessageE@Base 3.13.34
 _ZN15DPSessionKeyMsg9MergeFromERKS_@Base 3.13.34
 _ZN15DPSessionKeyMsgC1ERKS_@Base 3.13.34
 _ZN15DPSessionKeyMsgC1Ev@Base 3.13.34
 _ZN15DPSessionKeyMsgC2ERKS_@Base 3.13.34
 _ZN15DPSessionKeyMsgC2Ev@Base 3.13.34
 _ZN15DPSessionKeyMsgD0Ev@Base 3.13.34
 _ZN15DPSessionKeyMsgD1Ev@Base 3.13.34
 _ZN15DPSessionKeyMsgD2Ev@Base 3.13.34
 _ZN15SfpPermitConfig10Action_MAXE@Base 3.13.34
 _ZN15SfpPermitConfig10Action_MINE@Base 3.13.34
 _ZN15SfpPermitConfig10SharedCtorEv@Base 3.13.34
 _ZN15SfpPermitConfig10SharedDtorEv@Base 3.13.34
 _ZN15SfpPermitConfig10descriptorEv@Base 3.13.34
 _ZN15SfpPermitConfig11Logging_MAXE@Base 3.13.34
 _ZN15SfpPermitConfig11Logging_MINE@Base 3.13.34
 _ZN15SfpPermitConfig11clear_mtypeEv@Base 3.13.34
 _ZN15SfpPermitConfig12InternalSwapEPS_@Base 3.13.34
 _ZN15SfpPermitConfig15Enforcement_MAXE@Base 3.13.34
 _ZN15SfpPermitConfig15Enforcement_MINE@Base 3.13.34
 _ZN15SfpPermitConfig16Action_ARRAYSIZEE@Base 3.13.34
 _ZN15SfpPermitConfig16default_instanceEv@Base 3.13.34
 _ZN15SfpPermitConfig16kListFieldNumberE@Base 3.13.34
 _ZN15SfpPermitConfig17Logging_ARRAYSIZEE@Base 3.13.34
 _ZN15SfpPermitConfig18set_allocated_listEP26SfpPermitConfig_ListConfig@Base 3.13.34
 _ZN15SfpPermitConfig20kMismatchFieldNumberE@Base 3.13.34
 _ZN15SfpPermitConfig21Enforcement_ARRAYSIZEE@Base 3.13.34
 _ZN15SfpPermitConfig21InitAsDefaultInstanceEv@Base 3.13.34
 _ZN15SfpPermitConfig22set_allocated_mismatchEP30SfpPermitConfig_MisMatchConfig@Base 3.13.34
 _ZN15SfpPermitConfig27MergePartialFromCodedStreamEPN6google8protobuf2io16CodedInputStreamE@Base 3.13.34
 _ZN15SfpPermitConfig3SETE@Base 3.13.34
 _ZN15SfpPermitConfig4SwapEPS_@Base 3.13.34
 _ZN15SfpPermitConfig5ClearEv@Base 3.13.34
 _ZN15SfpPermitConfig6DELETEE@Base 3.13.34
 _ZN15SfpPermitConfig6ENABLEE@Base 3.13.34
 _ZN15SfpPermitConfig7DISABLEE@Base 3.13.34
 _ZN15SfpPermitConfig7ENFORCEE@Base 3.13.34
 _ZN15SfpPermitConfig7MONITORE@Base 3.13.34
 _ZN15SfpPermitConfig8CopyFromERKN6google8protobuf7MessageE@Base 3.13.34
 _ZN15SfpPermitConfig8CopyFromERKS_@Base 3.13.34
 _ZN15SfpPermitConfig9MergeFromERKN6google8protobuf7MessageE@Base 3.13.34
 _ZN15SfpPermitConfig9MergeFromERKS_@Base 3.13.34
 _ZN15SfpPermitConfigC1ERKS_@Base 3.13.34
 _ZN15SfpPermitConfigC1Ev@Base 3.13.34
 _ZN15SfpPermitConfigC2ERKS_@Base 3.13.34
 _ZN15SfpPermitConfigC2Ev@Base 3.13.34
 _ZN15SfpPermitConfigD0Ev@Base 3.13.34
 _ZN15SfpPermitConfigD1Ev@Base 3.13.34
 _ZN15SfpPermitConfigD2Ev@Base 3.13.34
 _ZN15TWAMPInitialise10SharedCtorEv@Base 3.13.34
 _ZN15TWAMPInitialise10SharedDtorEv@Base 3.13.34
 _ZN15TWAMPInitialise10descriptorEv@Base 3.13.34
 _ZN15TWAMPInitialise12InternalSwapEPS_@Base 3.13.34
 _ZN15TWAMPInitialise16default_instanceEv@Base 3.13.34
 _ZN15TWAMPInitialise19kVrfNameFieldNumberE@Base 3.13.34
 _ZN15TWAMPInitialise21InitAsDefaultInstanceEv@Base 3.13.34
 _ZN15TWAMPInitialise27MergePartialFromCodedStreamEPN6google8protobuf2io16CodedInputStreamE@Base 3.13.34
 _ZN15TWAMPInitialise4SwapEPS_@Base 3.13.34
 _ZN15TWAMPInitialise5ClearEv@Base 3.13.34
 _ZN15TWAMPInitialise8CopyFromERKN6google8protobuf7MessageE@Base 3.13.34
 _ZN15TWAMPInitialise8CopyFromERKS_@Base 3.13.34
 _ZN15TWAMPInitialise9MergeFromERKN6google8protobuf7MessageE@Base 3.13.34
 _ZN15TWAMPInitialise9MergeFromERKS_@Base 3.13.34
 _ZN15TWAMPInitialiseC1ERKS_@Base 3.13.34
 _ZN15TWAMPInitialiseC1Ev@Base 3.13.34
 _ZN15TWAMPInitialiseC2ERKS_@Base 3.13.34
 _ZN15TWAMPInitialiseC2Ev@Base 3.13.34
 _ZN15TWAMPInitialiseD0Ev@Base 3.13.34
 _ZN15TWAMPInitialiseD1Ev@Base 3.13.34
 _ZN15TWAMPInitialiseD2Ev@Base 3.13.34
 _ZN15TWAMPSessionKey10SharedCtorEv@Base 3.13.34
 _ZN15TWAMPSessionKey10SharedDtorEv@Base 3.13.34
 _ZN15TWAMPSessionKey10descriptorEv@Base 3.13.34
 _ZN15TWAMPSessionKey11clear_laddrEv@Base 3.13.34
 _ZN15TWAMPSessionKey11clear_raddrEv@Base 3.13.34
 _ZN15TWAMPSessionKey12InternalSwapEPS_@Base 3.13.34
 _ZN15TWAMPSessionKey16default_instanceEv@Base 3.13.34
 _ZN15TWAMPSessionKey17kLaddrFieldNumberE@Base 3.13.34
 _ZN15TWAMPSessionKey17kLportFieldNumberE@Base 3.13.34
 _ZN15TWAMPSessionKey17kRaddrFieldNumberE@Base 3.13.34
 _ZN15TWAMPSessionKey17kRportFieldNumberE@Base 3.13.34
 _ZN15TWAMPSessionKey19kVrfNameFieldNumberE@Base 3.13.34
 _ZN15TWAMPSessionKey21InitAsDefaultInstanceEv@Base 3.13.34
 _ZN15TWAMPSessionKey27MergePartialFromCodedStreamEPN6google8protobuf2io16CodedInputStreamE@Base 3.13.34
 _ZN15TWAMPSessionKey4SwapEPS_@Base 3.13.34
 _ZN15TWAMPSessionKey5ClearEv@Base 3.13.34
 _ZN15TWAMPSessionKey8CopyFromERKN6google8protobuf7MessageE@Base 3.13.34
 _ZN15TWAMPSessionKey8CopyFromERKS_@Base 3.13.34
 _ZN15TWAMPSessionKey9MergeFromERKN6google8protobuf7MessageE@Base 3.13.34
 _ZN15TWAMPSessionKey9MergeFromERKS_@Base 3.13.34
 _ZN15TWAMPSessionKeyC1ERKS_@Base 3.13.34
 _ZN15TWAMPSessionKeyC1Ev@Base 3.13.34
 _ZN15TWAMPSessionKeyC2ERKS_@Base 3.13.34
 _ZN15TWAMPSessionKeyC2Ev@Base 3.13.34
 _ZN15TWAMPSessionKeyD0Ev@Base 3.13.34
 _ZN15TWAMPSessionKeyD1Ev@Base 3.13.34
 _ZN15TWAMPSessionKeyD2Ev@Base 3.13.34
 _ZN16IPAddressOrLabel10SharedCtorEv@Base 3.13.6
 _ZN16IPAddressOrLabel10SharedDtorEv@Base 3.13.6
 _ZN16IPAddressOrLabel10descriptorEv@Base 3.13.6
 _ZN16IPAddressOrLabel12InternalSwapEPS_@Base 3.13.6
 _ZN16IPAddressOrLabel16default_instanceEv@Base 3.13.6
 _ZN16IPAddressOrLabel19clear_address_oneofEv@Base 3.13.6
 _ZN16IPAddressOrLabel20kIpv4AddrFieldNumberE@Base 3.13.6
 _ZN16IPAddressOrLabel20kIpv6AddrFieldNumberE@Base 3.13.6
 _ZN16IPAddressOrLabel21InitAsDefaultInstanceEv@Base 3.13.6
 _ZN16IPAddressOrLabel21kMplsLabelFieldNumberE@Base 3.13.6
 _ZN16IPAddressOrLabel27MergePartialFromCodedStreamEPN6google8protobuf2io16CodedInputStreamE@Base 3.13.6
 _ZN16IPAddressOrLabel4SwapEPS_@Base 3.13.6
 _ZN16IPAddressOrLabel5ClearEv@Base 3.13.6
 _ZN16IPAddressOrLabel8CopyFromERKN6google8protobuf7MessageE@Base 3.13.6
 _ZN16IPAddressOrLabel8CopyFromERKS_@Base 3.13.6
 _ZN16IPAddressOrLabel9MergeFromERKN6google8protobuf7MessageE@Base 3.13.6
 _ZN16IPAddressOrLabel9MergeFromERKS_@Base 3.13.6
 _ZN16IPAddressOrLabelC1ERKS_@Base 3.13.6
 _ZN16IPAddressOrLabelC1Ev@Base 3.13.6
 _ZN16IPAddressOrLabelC2ERKS_@Base 3.13.6
 _ZN16IPAddressOrLabelC2Ev@Base 3.13.6
 _ZN16IPAddressOrLabelD0Ev@Base 3.13.6
 _ZN16IPAddressOrLabelD1Ev@Base 3.13.6
 _ZN16IPAddressOrLabelD2Ev@Base 3.13.6
 _ZN16TWAMPCmdResponse10SharedCtorEv@Base 3.13.34
 _ZN16TWAMPCmdResponse10SharedDtorEv@Base 3.13.34
 _ZN16TWAMPCmdResponse10descriptorEv@Base 3.13.34
 _ZN16TWAMPCmdResponse12InternalSwapEPS_@Base 3.13.34
 _ZN16TWAMPCmdResponse16default_instanceEv@Base 3.13.34
 _ZN16TWAMPCmdResponse18kStatusFieldNumberE@Base 3.13.34
 _ZN16TWAMPCmdResponse20kCountersFieldNumberE@Base 3.13.34
 _ZN16TWAMPCmdResponse21InitAsDefaultInstanceEv@Base 3.13.34
 _ZN16TWAMPCmdResponse27MergePartialFromCodedStreamEPN6google8protobuf2io16CodedInputStreamE@Base 3.13.34
 _ZN16TWAMPCmdResponse4SwapEPS_@Base 3.13.34
 _ZN16TWAMPCmdResponse5ClearEv@Base 3.13.34
 _ZN16TWAMPCmdResponse8CopyFromERKN6google8protobuf7MessageE@Base 3.13.34
 _ZN16TWAMPCmdResponse8CopyFromERKS_@Base 3.13.34
 _ZN16TWAMPCmdResponse9MergeFromERKN6google8protobuf7MessageE@Base 3.13.34
 _ZN16TWAMPCmdResponse9MergeFromERKS_@Base 3.13.34
 _ZN16TWAMPCmdResponseC1ERKS_@Base 3.13.34
 _ZN16TWAMPCmdResponseC1Ev@Base 3.13.34
 _ZN16TWAMPCmdResponseC2ERKS_@Base 3.13.34
 _ZN16TWAMPCmdResponseC2Ev@Base 3.13.34
 _ZN16TWAMPCmdResponseD0Ev@Base 3.13.34
 _ZN16TWAMPCmdResponseD1Ev@Base 3.13.34
 _ZN16TWAMPCmdResponseD2Ev@Base 3.13.34
 _ZN17DPSessionStateMsg10SharedCtorEv@Base 3.13.34
 _ZN17DPSessionStateMsg10SharedDtorEv@Base 3.13.34
 _ZN17DPSessionStateMsg10descriptorEv@Base 3.13.34
 _ZN17DPSessionStateMsg12InternalSwapEPS_@Base 3.13.34
 _ZN17DPSessionStateMsg16default_instanceEv@Base 3.13.34
 _ZN17DPSessionStateMsg19kSsFlagsFieldNumberE@Base 3.13.34
 _ZN17DPSessionStateMsg21InitAsDefaultInstanceEv@Base 3.13.34
 _ZN17DPSessionStateMsg21kSsTimeoutFieldNumberE@Base 3.13.34
 _ZN17DPSessionStateMsg26kSsGenericStateFieldNumberE@Base 3.13.34
 _ZN17DPSessionStateMsg27MergePartialFromCodedStreamEPN6google8protobuf2io16CodedInputStreamE@Base 3.13.34
 _ZN17DPSessionStateMsg27kSsCustomTimeoutFieldNumberE@Base 3.13.34
 _ZN17DPSessionStateMsg27kSsProtocolStateFieldNumberE@Base 3.13.34
 _ZN17DPSessionStateMsg4SwapEPS_@Base 3.13.34
 _ZN17DPSessionStateMsg5ClearEv@Base 3.13.34
 _ZN17DPSessionStateMsg8CopyFromERKN6google8protobuf7MessageE@Base 3.13.34
 _ZN17DPSessionStateMsg8CopyFromERKS_@Base 3.13.34
 _ZN17DPSessionStateMsg9MergeFromERKN6google8protobuf7MessageE@Base 3.13.34
 _ZN17DPSessionStateMsg9MergeFromERKS_@Base 3.13.34
 _ZN17DPSessionStateMsgC1ERKS_@Base 3.13.34
 _ZN17DPSessionStateMsgC1Ev@Base 3.13.34
 _ZN17DPSessionStateMsgC2ERKS_@Base 3.13.34
 _ZN17DPSessionStateMsgC2Ev@Base 3.13.34
 _ZN17DPSessionStateMsgD0Ev@Base 3.13.34
 _ZN17DPSessionStateMsgD1Ev@Base 3.13.34
 _ZN17DPSessionStateMsgD2Ev@Base 3.13.34
 _ZN17DataplaneEnvelope10SharedCtorEv@Base 3.13.6
 _ZN17DataplaneEnvelope10SharedDtorEv@Base 3.13.6
 _ZN17DataplaneEnvelope10descriptorEv@Base 3.13.6
 _ZN17DataplaneEnvelope12InternalSwapEPS_@Base 3.13.6
 _ZN17DataplaneEnvelope15kMsgFieldNumberE@Base 3.13.6
 _ZN17DataplaneEnvelope16default_instanceEv@Base 3.13.6
 _ZN17DataplaneEnvelope16kTypeFieldNumberE@Base 3.13.6
 _ZN17DataplaneEnvelope21InitAsDefaultInstanceEv@Base 3.13.6
 _ZN17DataplaneEnvelope27MergePartialFromCodedStreamEPN6google8protobuf2io16CodedInputStreamE@Base 3.13.6
 _ZN17DataplaneEnvelope4SwapEPS_@Base 3.13.6
 _ZN17DataplaneEnvelope5ClearEv@Base 3.13.6
 _ZN17DataplaneEnvelope8CopyFromERKN6google8protobuf7MessageE@Base 3.13.6
 _ZN17DataplaneEnvelope8CopyFromERKS_@Base 3.13.6
 _ZN17DataplaneEnvelope9MergeFromERKN6google8protobuf7MessageE@Base 3.13.6
 _ZN17DataplaneEnvelope9MergeFromERKS_@Base 3.13.6
 _ZN17DataplaneEnvelopeC1ERKS_@Base 3.13.6
 _ZN17DataplaneEnvelopeC1Ev@Base 3.13.6
 _ZN17DataplaneEnvelopeC2ERKS_@Base 3.13.6
 _ZN17DataplaneEnvelopeC2Ev@Base 3.13.6
 _ZN17DataplaneEnvelopeD0Ev@Base 3.13.6
 _ZN17DataplaneEnvelopeD1Ev@Base 3.13.6
 _ZN17DataplaneEnvelopeD2Ev@Base 3.13.6
 _ZN17ICMPRateLimConfig10Action_MAXE@Base 3.13.34
 _ZN17ICMPRateLimConfig10Action_MINE@Base 3.13.34
 _ZN17ICMPRateLimConfig10SharedCtorEv@Base 3.13.34
 _ZN17ICMPRateLimConfig10SharedDtorEv@Base 3.13.34
 _ZN17ICMPRateLimConfig10descriptorEv@Base 3.13.34
 _ZN17ICMPRateLimConfig11DESTUNREACHE@Base 3.13.34
 _ZN17ICMPRateLimConfig12InternalSwapEPS_@Base 3.13.34
 _ZN17ICMPRateLimConfig12TIMEEXCEEDEDE@Base 3.13.34
 _ZN17ICMPRateLimConfig14Prot_ARRAYSIZEE@Base 3.13.34
 _ZN17ICMPRateLimConfig14Type_ARRAYSIZEE@Base 3.13.34
 _ZN17ICMPRateLimConfig15Param_ARRAYSIZEE@Base 3.13.34
 _ZN17ICMPRateLimConfig16Action_ARRAYSIZEE@Base 3.13.34
 _ZN17ICMPRateLimConfig16default_instanceEv@Base 3.13.34
 _ZN17ICMPRateLimConfig16kProtFieldNumberE@Base 3.13.34
 _ZN17ICMPRateLimConfig16kTypeFieldNumberE@Base 3.13.34
 _ZN17ICMPRateLimConfig17kParamFieldNumberE@Base 3.13.34
 _ZN17ICMPRateLimConfig18kActionFieldNumberE@Base 3.13.34
 _ZN17ICMPRateLimConfig19kMaximumFieldNumberE@Base 3.13.34
 _ZN17ICMPRateLimConfig21InitAsDefaultInstanceEv@Base 3.13.34
 _ZN17ICMPRateLimConfig27MergePartialFromCodedStreamEPN6google8protobuf2io16CodedInputStreamE@Base 3.13.34
 _ZN17ICMPRateLimConfig3SETE@Base 3.13.34
 _ZN17ICMPRateLimConfig4SwapEPS_@Base 3.13.34
 _ZN17ICMPRateLimConfig5ClearEv@Base 3.13.34
 _ZN17ICMPRateLimConfig6DELETEE@Base 3.13.34
 _ZN17ICMPRateLimConfig6ICMPV4E@Base 3.13.34
 _ZN17ICMPRateLimConfig6ICMPV6E@Base 3.13.34
 _ZN17ICMPRateLimConfig6TOOBIGE@Base 3.13.34
 _ZN17ICMPRateLimConfig7DEFAULTE@Base 3.13.34
 _ZN17ICMPRateLimConfig7MAXIMUME@Base 3.13.34
 _ZN17ICMPRateLimConfig8CopyFromERKN6google8protobuf7MessageE@Base 3.13.34
 _ZN17ICMPRateLimConfig8CopyFromERKS_@Base 3.13.34
 _ZN17ICMPRateLimConfig8Prot_MAXE@Base 3.13.34
 _ZN17ICMPRateLimConfig8Prot_MINE@Base 3.13.34
 _ZN17ICMPRateLimConfig8REDIRECTE@Base 3.13.34
 _ZN17ICMPRateLimConfig8Type_MAXE@Base 3.13.34
 _ZN17ICMPRateLimConfig8Type_MINE@Base 3.13.34
 _ZN17ICMPRateLimConfig9MergeFromERKN6google8protobuf7MessageE@Base 3.13.34
 _ZN17ICMPRateLimConfig9MergeFromERKS_@Base 3.13.34
 _ZN17ICMPRateLimConfig9PARAMPROBE@Base 3.13.34
 _ZN17ICMPRateLimConfig9Param_MAXE@Base 3.13.34
 _ZN17ICMPRateLimConfig9Param_MINE@Base 3.13.34
 _ZN17ICMPRateLimConfigC1ERKS_@Base 3.13.34
 _ZN17ICMPRateLimConfigC1Ev@Base 3.13.34
 _ZN17ICMPRateLimConfigC2ERKS_@Base 3.13.34
 _ZN17ICMPRateLimConfigC2Ev@Base 3.13.34
 _ZN17ICMPRateLimConfigD0Ev@Base 3.13.34
 _ZN17ICMPRateLimConfigD1Ev@Base 3.13.34
 _ZN17ICMPRateLimConfigD2Ev@Base 3.13.34
 _ZN17PortAllocationLog10SharedCtorEv@Base 3.13.6
 _ZN17PortAllocationLog10SharedDtorEv@Base 3.13.6
 _ZN17PortAllocationLog10descriptorEv@Base 3.13.6
 _ZN17PortAllocationLog12InternalSwapEPS_@Base 3.13.6
 _ZN17PortAllocationLog16default_instanceEv@Base 3.13.6
 _ZN17PortAllocationLog20kPoolNameFieldNumberE@Base 3.13.6
 _ZN17PortAllocationLog21InitAsDefaultInstanceEv@Base 3.13.6
 _ZN17PortAllocationLog21kEventTypeFieldNumberE@Base 3.13.6
 _ZN17PortAllocationLog22kPolicyNameFieldNumberE@Base 3.13.6
 _ZN17PortAllocationLog24kEndTimestampFieldNumberE@Base 3.13.6
 _ZN17PortAllocationLog25kEndPortNumberFieldNumberE@Base 3.13.6
 _ZN17PortAllocationLog26kStartTimestampFieldNumberE@Base 3.13.6
 _ZN17PortAllocationLog27MergePartialFromCodedStreamEPN6google8protobuf2io16CodedInputStreamE@Base 3.13.6
 _ZN17PortAllocationLog27kStartPortNumberFieldNumberE@Base 3.13.6
 _ZN17PortAllocationLog29kSubscriberAddressFieldNumberE@Base 3.13.6
 _ZN17PortAllocationLog31kNatAllocatedAddressFieldNumberE@Base 3.13.6
 _ZN17PortAllocationLog4SwapEPS_@Base 3.13.6
 _ZN17PortAllocationLog5ClearEv@Base 3.13.6
 _ZN17PortAllocationLog8CopyFromERKN6google8protobuf7MessageE@Base 3.13.6
 _ZN17PortAllocationLog8CopyFromERKS_@Base 3.13.6
 _ZN17PortAllocationLog9MergeFromERKN6google8protobuf7MessageE@Base 3.13.6
 _ZN17PortAllocationLog9MergeFromERKS_@Base 3.13.6
 _ZN17PortAllocationLogC1ERKS_@Base 3.13.6
 _ZN17PortAllocationLogC1Ev@Base 3.13.6
 _ZN17PortAllocationLogC2ERKS_@Base 3.13.6
 _ZN17PortAllocationLogC2Ev@Base 3.13.6
 _ZN17PortAllocationLogD0Ev@Base 3.13.6
 _ZN17PortAllocationLogD1Ev@Base 3.13.6
 _ZN17PortAllocationLogD2Ev@Base 3.13.6
 _ZN18CryptoPolicyConfig10Action_MAXE@Base 3.13.6
 _ZN18CryptoPolicyConfig10Action_MINE@Base 3.13.6
 _ZN18CryptoPolicyConfig10SharedCtorEv@Base 3.13.6
 _ZN18CryptoPolicyConfig10SharedDtorEv@Base 3.13.6
 _ZN18CryptoPolicyConfig10descriptorEv@Base 3.13.6
 _ZN18CryptoPolicyConfig12InternalSwapEPS_@Base 3.13.6
 _ZN18CryptoPolicyConfig15clear_sel_daddrEv@Base 3.13.6
 _ZN18CryptoPolicyConfig15clear_sel_saddrEv@Base 3.13.6
 _ZN18CryptoPolicyConfig15kVrfFieldNumberE@Base 3.13.6
 _ZN18CryptoPolicyConfig16Action_ARRAYSIZEE@Base 3.13.6
 _ZN18CryptoPolicyConfig16default_instanceEv@Base 3.13.6
 _ZN18CryptoPolicyConfig18kActionFieldNumberE@Base 3.13.6
 _ZN18CryptoPolicyConfig19kIfindexFieldNumberE@Base 3.13.6
 _ZN18CryptoPolicyConfig20kSelDaddrFieldNumberE@Base 3.13.6
 _ZN18CryptoPolicyConfig20kSelDportFieldNumberE@Base 3.13.6
 _ZN18CryptoPolicyConfig20kSelProtoFieldNumberE@Base 3.13.6
 _ZN18CryptoPolicyConfig20kSelSaddrFieldNumberE@Base 3.13.6
 _ZN18CryptoPolicyConfig20kSelSportFieldNumberE@Base 3.13.6
 _ZN18CryptoPolicyConfig21InitAsDefaultInstanceEv@Base 3.13.6
 _ZN18CryptoPolicyConfig22kSelIfindexFieldNumberE@Base 3.13.6
 _ZN18CryptoPolicyConfig25kSelDprefixLenFieldNumberE@Base 3.13.6
 _ZN18CryptoPolicyConfig25kSelSprefixLenFieldNumberE@Base 3.13.6
 _ZN18CryptoPolicyConfig27MergePartialFromCodedStreamEPN6google8protobuf2io16CodedInputStreamE@Base 3.13.6
 _ZN18CryptoPolicyConfig4SwapEPS_@Base 3.13.6
 _ZN18CryptoPolicyConfig5ClearEv@Base 3.13.6
 _ZN18CryptoPolicyConfig6ATTACHE@Base 3.13.6
 _ZN18CryptoPolicyConfig6DETACHE@Base 3.13.6
 _ZN18CryptoPolicyConfig8CopyFromERKN6google8protobuf7MessageE@Base 3.13.6
 _ZN18CryptoPolicyConfig8CopyFromERKS_@Base 3.13.6
 _ZN18CryptoPolicyConfig9MergeFromERKN6google8protobuf7MessageE@Base 3.13.6
 _ZN18CryptoPolicyConfig9MergeFromERKS_@Base 3.13.6
 _ZN18CryptoPolicyConfigC1ERKS_@Base 3.13.6
 _ZN18CryptoPolicyConfigC1Ev@Base 3.13.6
 _ZN18CryptoPolicyConfigC2ERKS_@Base 3.13.6
 _ZN18CryptoPolicyConfigC2Ev@Base 3.13.6
 _ZN18CryptoPolicyConfigD0Ev@Base 3.13.6
 _ZN18CryptoPolicyConfigD1Ev@Base 3.13.6
 _ZN18CryptoPolicyConfigD2Ev@Base 3.13.6
 _ZN18IP6RedirectsConfig10SharedCtorEv@Base 3.13.6
 _ZN18IP6RedirectsConfig10SharedDtorEv@Base 3.13.6
 _ZN18IP6RedirectsConfig10descriptorEv@Base 3.13.6
 _ZN18IP6RedirectsConfig12InternalSwapEPS_@Base 3.13.6
 _ZN18IP6RedirectsConfig16default_instanceEv@Base 3.13.6
 _ZN18IP6RedirectsConfig21InitAsDefaultInstanceEv@Base 3.13.6
 _ZN18IP6RedirectsConfig27MergePartialFromCodedStreamEPN6google8protobuf2io16CodedInputStreamE@Base 3.13.6
 _ZN18IP6RedirectsConfig27kEnableRedirectsFieldNumberE@Base 3.13.6
 _ZN18IP6RedirectsConfig4SwapEPS_@Base 3.13.6
 _ZN18IP6RedirectsConfig5ClearEv@Base 3.13.6
 _ZN18IP6RedirectsConfig8CopyFromERKN6google8protobuf7MessageE@Base 3.13.6
 _ZN18IP6RedirectsConfig8CopyFromERKS_@Base 3.13.6
 _ZN18IP6RedirectsConfig9MergeFromERKN6google8protobuf7MessageE@Base 3.13.6
 _ZN18IP6RedirectsConfig9MergeFromERKS_@Base 3.13.6
 _ZN18IP6RedirectsConfigC1ERKS_@Base 3.13.6
 _ZN18IP6RedirectsConfigC1Ev@Base 3.13.6
 _ZN18IP6RedirectsConfigC2ERKS_@Base 3.13.6
 _ZN18IP6RedirectsConfigC2Ev@Base 3.13.6
 _ZN18IP6RedirectsConfigD0Ev@Base 3.13.6
 _ZN18IP6RedirectsConfigD1Ev@Base 3.13.6
 _ZN18IP6RedirectsConfigD2Ev@Base 3.13.6
 _ZN18NPFSessionStateMsg10SharedCtorEv@Base 3.13.34
 _ZN18NPFSessionStateMsg10SharedDtorEv@Base 3.13.34
 _ZN18NPFSessionStateMsg10descriptorEv@Base 3.13.34
 _ZN18NPFSessionStateMsg12InternalSwapEPS_@Base 3.13.34
 _ZN18NPFSessionStateMsg16default_instanceEv@Base 3.13.34
 _ZN18NPFSessionStateMsg20kNssStateFieldNumberE@Base 3.13.34
 _ZN18NPFSessionStateMsg21InitAsDefaultInstanceEv@Base 3.13.34
 _ZN18NPFSessionStateMsg22kNssTcpwinsFieldNumberE@Base 3.13.34
 _ZN18NPFSessionStateMsg27MergePartialFromCodedStreamEPN6google8protobuf2io16CodedInputStreamE@Base 3.13.34
 _ZN18NPFSessionStateMsg4SwapEPS_@Base 3.13.34
 _ZN18NPFSessionStateMsg5ClearEv@Base 3.13.34
 _ZN18NPFSessionStateMsg8CopyFromERKN6google8protobuf7MessageE@Base 3.13.34
 _ZN18NPFSessionStateMsg8CopyFromERKS_@Base 3.13.34
 _ZN18NPFSessionStateMsg9MergeFromERKN6google8protobuf7MessageE@Base 3.13.34
 _ZN18NPFSessionStateMsg9MergeFromERKS_@Base 3.13.34
 _ZN18NPFSessionStateMsgC1ERKS_@Base 3.13.34
 _ZN18NPFSessionStateMsgC1Ev@Base 3.13.34
 _ZN18NPFSessionStateMsgC2ERKS_@Base 3.13.34
 _ZN18NPFSessionStateMsgC2Ev@Base 3.13.34
 _ZN18NPFSessionStateMsgD0Ev@Base 3.13.34
 _ZN18NPFSessionStateMsgD1Ev@Base 3.13.34
 _ZN18NPFSessionStateMsgD2Ev@Base 3.13.34
 _ZN18PackedDPSessionMsg10SharedCtorEv@Base 3.13.34
 _ZN18PackedDPSessionMsg10SharedDtorEv@Base 3.13.34
 _ZN18PackedDPSessionMsg10descriptorEv@Base 3.13.34
 _ZN18PackedDPSessionMsg12InternalSwapEPS_@Base 3.13.34
 _ZN18PackedDPSessionMsg16default_instanceEv@Base 3.13.34
 _ZN18PackedDPSessionMsg20kPdsFlagsFieldNumberE@Base 3.13.34
 _ZN18PackedDPSessionMsg21InitAsDefaultInstanceEv@Base 3.13.34
 _ZN18PackedDPSessionMsg23kPdsPackTypeFieldNumberE@Base 3.13.34
 _ZN18PackedDPSessionMsg23kPdsSessionsFieldNumberE@Base 3.13.34
 _ZN18PackedDPSessionMsg27MergePartialFromCodedStreamEPN6google8protobuf2io16CodedInputStreamE@Base 3.13.34
 _ZN18PackedDPSessionMsg4SwapEPS_@Base 3.13.34
 _ZN18PackedDPSessionMsg5ClearEv@Base 3.13.34
 _ZN18PackedDPSessionMsg8CopyFromERKN6google8protobuf7MessageE@Base 3.13.34
 _ZN18PackedDPSessionMsg8CopyFromERKS_@Base 3.13.34
 _ZN18PackedDPSessionMsg9MergeFromERKN6google8protobuf7MessageE@Base 3.13.34
 _ZN18PackedDPSessionMsg9MergeFromERKS_@Base 3.13.34
 _ZN18PackedDPSessionMsgC1ERKS_@Base 3.13.34
 _ZN18PackedDPSessionMsgC1Ev@Base 3.13.34
 _ZN18PackedDPSessionMsgC2ERKS_@Base 3.13.34
 _ZN18PackedDPSessionMsgC2Ev@Base 3.13.34
 _ZN18PackedDPSessionMsgD0Ev@Base 3.13.34
 _ZN18PackedDPSessionMsgD1Ev@Base 3.13.34
 _ZN18PackedDPSessionMsgD2Ev@Base 3.13.34
 _ZN18TWAMPSessionCreate10SharedCtorEv@Base 3.13.34
 _ZN18TWAMPSessionCreate10SharedDtorEv@Base 3.13.34
 _ZN18TWAMPSessionCreate10descriptorEv@Base 3.13.34
 _ZN18TWAMPSessionCreate12InternalSwapEPS_@Base 3.13.34
 _ZN18TWAMPSessionCreate14MODE_ENCRYPTEDE@Base 3.13.34
 _ZN18TWAMPSessionCreate14Mode_ARRAYSIZEE@Base 3.13.34
 _ZN18TWAMPSessionCreate15kKeyFieldNumberE@Base 3.13.34
 _ZN18TWAMPSessionCreate16default_instanceEv@Base 3.13.34
 _ZN18TWAMPSessionCreate16kDscpFieldNumberE@Base 3.13.34
 _ZN18TWAMPSessionCreate16kModeFieldNumberE@Base 3.13.34
 _ZN18TWAMPSessionCreate18MODE_AUTHENTICATEDE@Base 3.13.34
 _ZN18TWAMPSessionCreate18kAesKeyFieldNumberE@Base 3.13.34
 _ZN18TWAMPSessionCreate19kHmacKeyFieldNumberE@Base 3.13.34
 _ZN18TWAMPSessionCreate21InitAsDefaultInstanceEv@Base 3.13.34
 _ZN18TWAMPSessionCreate24kRxPayloadLenFieldNumberE@Base 3.13.34
 _ZN18TWAMPSessionCreate24kTxPayloadLenFieldNumberE@Base 3.13.34
 _ZN18TWAMPSessionCreate27MergePartialFromCodedStreamEPN6google8protobuf2io16CodedInputStreamE@Base 3.13.34
 _ZN18TWAMPSessionCreate4SwapEPS_@Base 3.13.34
 _ZN18TWAMPSessionCreate5ClearEv@Base 3.13.34
 _ZN18TWAMPSessionCreate8CopyFromERKN6google8protobuf7MessageE@Base 3.13.34
 _ZN18TWAMPSessionCreate8CopyFromERKS_@Base 3.13.34
 _ZN18TWAMPSessionCreate8Mode_MAXE@Base 3.13.34
 _ZN18TWAMPSessionCreate8Mode_MINE@Base 3.13.34
 _ZN18TWAMPSessionCreate9MODE_OPENE@Base 3.13.34
 _ZN18TWAMPSessionCreate9MergeFromERKN6google8protobuf7MessageE@Base 3.13.34
 _ZN18TWAMPSessionCreate9MergeFromERKS_@Base 3.13.34
 _ZN18TWAMPSessionCreateC1ERKS_@Base 3.13.34
 _ZN18TWAMPSessionCreateC1Ev@Base 3.13.34
 _ZN18TWAMPSessionCreateC2ERKS_@Base 3.13.34
 _ZN18TWAMPSessionCreateC2Ev@Base 3.13.34
 _ZN18TWAMPSessionCreateD0Ev@Base 3.13.34
 _ZN18TWAMPSessionCreateD1Ev@Base 3.13.34
 _ZN18TWAMPSessionCreateD2Ev@Base 3.13.34
 _ZN18TWAMPSessionDelete10SharedCtorEv@Base 3.13.34
 _ZN18TWAMPSessionDelete10SharedDtorEv@Base 3.13.34
 _ZN18TWAMPSessionDelete10descriptorEv@Base 3.13.34
 _ZN18TWAMPSessionDelete12InternalSwapEPS_@Base 3.13.34
 _ZN18TWAMPSessionDelete15kKeyFieldNumberE@Base 3.13.34
 _ZN18TWAMPSessionDelete16default_instanceEv@Base 3.13.34
 _ZN18TWAMPSessionDelete21InitAsDefaultInstanceEv@Base 3.13.34
 _ZN18TWAMPSessionDelete27MergePartialFromCodedStreamEPN6google8protobuf2io16CodedInputStreamE@Base 3.13.34
 _ZN18TWAMPSessionDelete4SwapEPS_@Base 3.13.34
 _ZN18TWAMPSessionDelete5ClearEv@Base 3.13.34
 _ZN18TWAMPSessionDelete8CopyFromERKN6google8protobuf7MessageE@Base 3.13.34
 _ZN18TWAMPSessionDelete8CopyFromERKS_@Base 3.13.34
 _ZN18TWAMPSessionDelete9MergeFromERKN6google8protobuf7MessageE@Base 3.13.34
 _ZN18TWAMPSessionDelete9MergeFromERKS_@Base 3.13.34
 _ZN18TWAMPSessionDeleteC1ERKS_@Base 3.13.34
 _ZN18TWAMPSessionDeleteC1Ev@Base 3.13.34
 _ZN18TWAMPSessionDeleteC2ERKS_@Base 3.13.34
 _ZN18TWAMPSessionDeleteC2Ev@Base 3.13.34
 _ZN18TWAMPSessionDeleteD0Ev@Base 3.13.34
 _ZN18TWAMPSessionDeleteD1Ev@Base 3.13.34
 _ZN18TWAMPSessionDeleteD2Ev@Base 3.13.34
 _ZN19DPSessionCounterMsg10SharedCtorEv@Base 3.13.34
 _ZN19DPSessionCounterMsg10SharedDtorEv@Base 3.13.34
 _ZN19DPSessionCounterMsg10descriptorEv@Base 3.13.34
 _ZN19DPSessionCounterMsg12InternalSwapEPS_@Base 3.13.34
 _ZN19DPSessionCounterMsg16default_instanceEv@Base 3.13.34
 _ZN19DPSessionCounterMsg20kScPktsInFieldNumberE@Base 3.13.34
 _ZN19DPSessionCounterMsg21InitAsDefaultInstanceEv@Base 3.13.34
 _ZN19DPSessionCounterMsg21kScBytesInFieldNumberE@Base 3.13.34
 _ZN19DPSessionCounterMsg21kScPktsOutFieldNumberE@Base 3.13.34
 _ZN19DPSessionCounterMsg22kScBytesOutFieldNumberE@Base 3.13.34
 _ZN19DPSessionCounterMsg27MergePartialFromCodedStreamEPN6google8protobuf2io16CodedInputStreamE@Base 3.13.34
 _ZN19DPSessionCounterMsg4SwapEPS_@Base 3.13.34
 _ZN19DPSessionCounterMsg5ClearEv@Base 3.13.34
 _ZN19DPSessionCounterMsg8CopyFromERKN6google8protobuf7MessageE@Base 3.13.34
 _ZN19DPSessionCounterMsg8CopyFromERKS_@Base 3.13.34
 _ZN19DPSessionCounterMsg9MergeFromERKN6google8protobuf7MessageE@Base 3.13.34
 _ZN19DPSessionCounterMsg9MergeFromERKS_@Base 3.13.34
 _ZN19DPSessionCounterMsgC1ERKS_@Base 3.13.34
 _ZN19DPSessionCounterMsgC1Ev@Base 3.13.34
 _ZN19DPSessionCounterMsgC2ERKS_@Base 3.13.34
 _ZN19DPSessionCounterMsgC2Ev@Base 3.13.34
 _ZN19DPSessionCounterMsgD0Ev@Base 3.13.34
 _ZN19DPSessionCounterMsgD1Ev@Base 3.13.34
 _ZN19DPSessionCounterMsgD2Ev@Base 3.13.34
 _ZN19LAGConfig_LagCreate10SharedCtorEv@Base 3.13.6
 _ZN19LAGConfig_LagCreate10SharedDtorEv@Base 3.13.6
 _ZN19LAGConfig_LagCreate10descriptorEv@Base 3.13.6
 _ZN19LAGConfig_LagCreate12InternalSwapEPS_@Base 3.13.6
 _ZN19LAGConfig_LagCreate16default_instanceEv@Base 3.13.6
 _ZN19LAGConfig_LagCreate16kModeFieldNumberE@Base 3.13.6
 _ZN19LAGConfig_LagCreate18kIfnameFieldNumberE@Base 3.13.6
 _ZN19LAGConfig_LagCreate21InitAsDefaultInstanceEv@Base 3.13.6
 _ZN19LAGConfig_LagCreate23kLacpOptionsFieldNumberE@Base 3.13.6
 _ZN19LAGConfig_LagCreate24kMinimumLinksFieldNumberE@Base 3.13.6
 _ZN19LAGConfig_LagCreate27MergePartialFromCodedStreamEPN6google8protobuf2io16CodedInputStreamE@Base 3.13.6
 _ZN19LAGConfig_LagCreate4SwapEPS_@Base 3.13.6
 _ZN19LAGConfig_LagCreate5ClearEv@Base 3.13.6
 _ZN19LAGConfig_LagCreate8CopyFromERKN6google8protobuf7MessageE@Base 3.13.6
 _ZN19LAGConfig_LagCreate8CopyFromERKS_@Base 3.13.6
 _ZN19LAGConfig_LagCreate9MergeFromERKN6google8protobuf7MessageE@Base 3.13.6
 _ZN19LAGConfig_LagCreate9MergeFromERKS_@Base 3.13.6
 _ZN19LAGConfig_LagCreateC1ERKS_@Base 3.13.6
 _ZN19LAGConfig_LagCreateC1Ev@Base 3.13.6
 _ZN19LAGConfig_LagCreateC2ERKS_@Base 3.13.6
 _ZN19LAGConfig_LagCreateC2Ev@Base 3.13.6
 _ZN19LAGConfig_LagCreateD0Ev@Base 3.13.6
 _ZN19LAGConfig_LagCreateD1Ev@Base 3.13.6
 _ZN19LAGConfig_LagCreateD2Ev@Base 3.13.6
 _ZN19LAGConfig_LagDelete10SharedCtorEv@Base 3.13.6
 _ZN19LAGConfig_LagDelete10SharedDtorEv@Base 3.13.6
 _ZN19LAGConfig_LagDelete10descriptorEv@Base 3.13.6
 _ZN19LAGConfig_LagDelete12InternalSwapEPS_@Base 3.13.6
 _ZN19LAGConfig_LagDelete16default_instanceEv@Base 3.13.6
 _ZN19LAGConfig_LagDelete18kIfnameFieldNumberE@Base 3.13.6
 _ZN19LAGConfig_LagDelete21InitAsDefaultInstanceEv@Base 3.13.6
 _ZN19LAGConfig_LagDelete27MergePartialFromCodedStreamEPN6google8protobuf2io16CodedInputStreamE@Base 3.13.6
 _ZN19LAGConfig_LagDelete4SwapEPS_@Base 3.13.6
 _ZN19LAGConfig_LagDelete5ClearEv@Base 3.13.6
 _ZN19LAGConfig_LagDelete8CopyFromERKN6google8protobuf7MessageE@Base 3.13.6
 _ZN19LAGConfig_LagDelete8CopyFromERKS_@Base 3.13.6
 _ZN19LAGConfig_LagDelete9MergeFromERKN6google8protobuf7MessageE@Base 3.13.6
 _ZN19LAGConfig_LagDelete9MergeFromERKS_@Base 3.13.6
 _ZN19LAGConfig_LagDeleteC1ERKS_@Base 3.13.6
 _ZN19LAGConfig_LagDeleteC1Ev@Base 3.13.6
 _ZN19LAGConfig_LagDeleteC2ERKS_@Base 3.13.6
 _ZN19LAGConfig_LagDeleteC2Ev@Base 3.13.6
 _ZN19LAGConfig_LagDeleteD0Ev@Base 3.13.6
 _ZN19LAGConfig_LagDeleteD1Ev@Base 3.13.6
 _ZN19LAGConfig_LagDeleteD2Ev@Base 3.13.6
 _ZN19PipelineStatsConfig10SharedCtorEv@Base 3.13.6
 _ZN19PipelineStatsConfig10SharedDtorEv@Base 3.13.6
 _ZN19PipelineStatsConfig10descriptorEv@Base 3.13.6
 _ZN19PipelineStatsConfig12InternalSwapEPS_@Base 3.13.6
 _ZN19PipelineStatsConfig16default_instanceEv@Base 3.13.6
 _ZN19PipelineStatsConfig21InitAsDefaultInstanceEv@Base 3.13.6
 _ZN19PipelineStatsConfig23kEnableStatsFieldNumberE@Base 3.13.6
 _ZN19PipelineStatsConfig27MergePartialFromCodedStreamEPN6google8protobuf2io16CodedInputStreamE@Base 3.13.6
 _ZN19PipelineStatsConfig4SwapEPS_@Base 3.13.6
 _ZN19PipelineStatsConfig5ClearEv@Base 3.13.6
 _ZN19PipelineStatsConfig8CopyFromERKN6google8protobuf7MessageE@Base 3.13.6
 _ZN19PipelineStatsConfig8CopyFromERKS_@Base 3.13.6
 _ZN19PipelineStatsConfig9MergeFromERKN6google8protobuf7MessageE@Base 3.13.6
 _ZN19PipelineStatsConfig9MergeFromERKS_@Base 3.13.6
 _ZN19PipelineStatsConfigC1ERKS_@Base 3.13.6
 _ZN19PipelineStatsConfigC1Ev@Base 3.13.6
 _ZN19PipelineStatsConfigC2ERKS_@Base 3.13.6
 _ZN19PipelineStatsConfigC2Ev@Base 3.13.6
 _ZN19PipelineStatsConfigD0Ev@Base 3.13.6
 _ZN19PipelineStatsConfigD1Ev@Base 3.13.6
 _ZN19PipelineStatsConfigD2Ev@Base 3.13.6
 _ZN19SfpPermitConfig_SFP10SharedCtorEv@Base 3.13.34
 _ZN19SfpPermitConfig_SFP10SharedDtorEv@Base 3.13.34
 _ZN19SfpPermitConfig_SFP10descriptorEv@Base 3.13.34
 _ZN19SfpPermitConfig_SFP12InternalSwapEPS_@Base 3.13.34
 _ZN19SfpPermitConfig_SFP15kOuiFieldNumberE@Base 3.13.34
 _ZN19SfpPermitConfig_SFP15kRevFieldNumberE@Base 3.13.34
 _ZN19SfpPermitConfig_SFP16default_instanceEv@Base 3.13.34
 _ZN19SfpPermitConfig_SFP16kPartFieldNumberE@Base 3.13.34
 _ZN19SfpPermitConfig_SFP17kIndexFieldNumberE@Base 3.13.34
 _ZN19SfpPermitConfig_SFP18kVendorFieldNumberE@Base 3.13.34
 _ZN19SfpPermitConfig_SFP21InitAsDefaultInstanceEv@Base 3.13.34
 _ZN19SfpPermitConfig_SFP27MergePartialFromCodedStreamEPN6google8protobuf2io16CodedInputStreamE@Base 3.13.34
 _ZN19SfpPermitConfig_SFP4SwapEPS_@Base 3.13.34
 _ZN19SfpPermitConfig_SFP5ClearEv@Base 3.13.34
 _ZN19SfpPermitConfig_SFP8CopyFromERKN6google8protobuf7MessageE@Base 3.13.34
 _ZN19SfpPermitConfig_SFP8CopyFromERKS_@Base 3.13.34
 _ZN19SfpPermitConfig_SFP9MergeFromERKN6google8protobuf7MessageE@Base 3.13.34
 _ZN19SfpPermitConfig_SFP9MergeFromERKS_@Base 3.13.34
 _ZN19SfpPermitConfig_SFPC1ERKS_@Base 3.13.34
 _ZN19SfpPermitConfig_SFPC1Ev@Base 3.13.34
 _ZN19SfpPermitConfig_SFPC2ERKS_@Base 3.13.34
 _ZN19SfpPermitConfig_SFPC2Ev@Base 3.13.34
 _ZN19SfpPermitConfig_SFPD0Ev@Base 3.13.34
 _ZN19SfpPermitConfig_SFPD1Ev@Base 3.13.34
 _ZN19SfpPermitConfig_SFPD2Ev@Base 3.13.34
 _ZN20TWAMPSessionCounters10SharedCtorEv@Base 3.13.34
 _ZN20TWAMPSessionCounters10SharedDtorEv@Base 3.13.34
 _ZN20TWAMPSessionCounters10descriptorEv@Base 3.13.34
 _ZN20TWAMPSessionCounters12InternalSwapEPS_@Base 3.13.34
 _ZN20TWAMPSessionCounters15kKeyFieldNumberE@Base 3.13.34
 _ZN20TWAMPSessionCounters16default_instanceEv@Base 3.13.34
 _ZN20TWAMPSessionCounters21InitAsDefaultInstanceEv@Base 3.13.34
 _ZN20TWAMPSessionCounters27MergePartialFromCodedStreamEPN6google8protobuf2io16CodedInputStreamE@Base 3.13.34
 _ZN20TWAMPSessionCounters4SwapEPS_@Base 3.13.34
 _ZN20TWAMPSessionCounters5ClearEv@Base 3.13.34
 _ZN20TWAMPSessionCounters8CopyFromERKN6google8protobuf7MessageE@Base 3.13.34
 _ZN20TWAMPSessionCounters8CopyFromERKS_@Base 3.13.34
 _ZN20TWAMPSessionCounters9MergeFromERKN6google8protobuf7MessageE@Base 3.13.34
 _ZN20TWAMPSessionCounters9MergeFromERKS_@Base 3.13.34
 _ZN20TWAMPSessionCountersC1ERKS_@Base 3.13.34
 _ZN20TWAMPSessionCountersC1Ev@Base 3.13.34
 _ZN20TWAMPSessionCountersC2ERKS_@Base 3.13.34
 _ZN20TWAMPSessionCountersC2Ev@Base 3.13.34
 _ZN20TWAMPSessionCountersD0Ev@Base 3.13.34
 _ZN20TWAMPSessionCountersD1Ev@Base 3.13.34
 _ZN20TWAMPSessionCountersD2Ev@Base 3.13.34
 _ZN21FeatureAffinityConfig10CRYPTO_FWDE@Base 3.13.6
 _ZN21FeatureAffinityConfig10SharedCtorEv@Base 3.13.6
 _ZN21FeatureAffinityConfig10SharedDtorEv@Base 3.13.6
 _ZN21FeatureAffinityConfig10descriptorEv@Base 3.13.6
 _ZN21FeatureAffinityConfig11Feature_MAXE@Base 3.13.6
 _ZN21FeatureAffinityConfig11Feature_MINE@Base 3.13.6
 _ZN21FeatureAffinityConfig12InternalSwapEPS_@Base 3.13.6
 _ZN21FeatureAffinityConfig16default_instanceEv@Base 3.13.6
 _ZN21FeatureAffinityConfig17Feature_ARRAYSIZEE@Base 3.13.6
 _ZN21FeatureAffinityConfig19kCpumaskFieldNumberE@Base 3.13.6
 _ZN21FeatureAffinityConfig19kFeatureFieldNumberE@Base 3.13.6
 _ZN21FeatureAffinityConfig21InitAsDefaultInstanceEv@Base 3.13.6
 _ZN21FeatureAffinityConfig27MergePartialFromCodedStreamEPN6google8protobuf2io16CodedInputStreamE@Base 3.13.6
 _ZN21FeatureAffinityConfig4SwapEPS_@Base 3.13.6
 _ZN21FeatureAffinityConfig5ClearEv@Base 3.13.6
 _ZN21FeatureAffinityConfig6CRYPTOE@Base 3.13.6
 _ZN21FeatureAffinityConfig8CopyFromERKN6google8protobuf7MessageE@Base 3.13.6
 _ZN21FeatureAffinityConfig8CopyFromERKS_@Base 3.13.6
 _ZN21FeatureAffinityConfig9MergeFromERKN6google8protobuf7MessageE@Base 3.13.6
 _ZN21FeatureAffinityConfig9MergeFromERKS_@Base 3.13.6
 _ZN21FeatureAffinityConfigC1ERKS_@Base 3.13.6
 _ZN21FeatureAffinityConfigC1Ev@Base 3.13.6
 _ZN21FeatureAffinityConfigC2ERKS_@Base 3.13.6
 _ZN21FeatureAffinityConfigC2Ev@Base 3.13.6
 _ZN21FeatureAffinityConfigD0Ev@Base 3.13.6
 _ZN21FeatureAffinityConfigD1Ev@Base 3.13.6
 _ZN21FeatureAffinityConfigD2Ev@Base 3.13.6
 _ZN22protobuf_Route_2eproto11TableStruct7offsetsE@Base 3.13.6
 _ZN22protobuf_Route_2eproto12InitDefaultsEv@Base 3.13.6
 _ZN22protobuf_Route_2eproto13scc_info_PathE@Base 3.13.6
 _ZN22protobuf_Route_2eproto14AddDescriptorsEv@Base 3.13.6
 _ZN22protobuf_Route_2eproto14scc_info_RouteE@Base 3.13.6
 _ZN22protobuf_Route_2eproto18AddDescriptorsImplEv@Base 3.13.6
 _ZN22protobuf_Route_2eproto19file_level_metadataE@Base 3.13.6
 _ZN22protobuf_Route_2eproto22protobuf_RegisterTypesERKNSt7__cxx1112basic_stringIcSt11char_traitsIcESaIcEEE@Base 3.13.6
 _ZN22protobuf_Route_2eproto26protobuf_AssignDescriptorsEv@Base 3.13.6
 _ZN22protobuf_Route_2eproto27file_level_enum_descriptorsE@Base 3.13.6
 _ZN22protobuf_Route_2eproto29static_descriptor_initializerE@Base 3.13.6
 _ZN22protobuf_Route_2eproto30protobuf_AssignDescriptorsOnceEv@Base 3.13.6
 _ZN25PauseConfig_PauseIfConfig10SharedCtorEv@Base 3.13.6
 _ZN25PauseConfig_PauseIfConfig10SharedDtorEv@Base 3.13.6
 _ZN25PauseConfig_PauseIfConfig10descriptorEv@Base 3.13.6
 _ZN25PauseConfig_PauseIfConfig12InternalSwapEPS_@Base 3.13.6
 _ZN25PauseConfig_PauseIfConfig16default_instanceEv@Base 3.13.6
 _ZN25PauseConfig_PauseIfConfig17kValueFieldNumberE@Base 3.13.6
 _ZN25PauseConfig_PauseIfConfig18kIfnameFieldNumberE@Base 3.13.6
 _ZN25PauseConfig_PauseIfConfig21InitAsDefaultInstanceEv@Base 3.13.6
 _ZN25PauseConfig_PauseIfConfig27MergePartialFromCodedStreamEPN6google8protobuf2io16CodedInputStreamE@Base 3.13.6
 _ZN25PauseConfig_PauseIfConfig4SwapEPS_@Base 3.13.6
 _ZN25PauseConfig_PauseIfConfig5ClearEv@Base 3.13.6
 _ZN25PauseConfig_PauseIfConfig8CopyFromERKN6google8protobuf7MessageE@Base 3.13.6
 _ZN25PauseConfig_PauseIfConfig8CopyFromERKS_@Base 3.13.6
 _ZN25PauseConfig_PauseIfConfig9MergeFromERKN6google8protobuf7MessageE@Base 3.13.6
 _ZN25PauseConfig_PauseIfConfig9MergeFromERKS_@Base 3.13.6
 _ZN25PauseConfig_PauseIfConfigC1ERKS_@Base 3.13.6
 _ZN25PauseConfig_PauseIfConfigC1Ev@Base 3.13.6
 _ZN25PauseConfig_PauseIfConfigC2ERKS_@Base 3.13.6
 _ZN25PauseConfig_PauseIfConfigC2Ev@Base 3.13.6
 _ZN25PauseConfig_PauseIfConfigD0Ev@Base 3.13.6
 _ZN25PauseConfig_PauseIfConfigD1Ev@Base 3.13.6
 _ZN25PauseConfig_PauseIfConfigD2Ev@Base 3.13.6
 _ZN25RuleMatch_ICMPTypeAndCode10SharedCtorEv@Base 3.13.6
 _ZN25RuleMatch_ICMPTypeAndCode10SharedDtorEv@Base 3.13.6
 _ZN25RuleMatch_ICMPTypeAndCode10descriptorEv@Base 3.13.6
 _ZN25RuleMatch_ICMPTypeAndCode12InternalSwapEPS_@Base 3.13.6
 _ZN25RuleMatch_ICMPTypeAndCode16default_instanceEv@Base 3.13.6
 _ZN25RuleMatch_ICMPTypeAndCode16kCodeFieldNumberE@Base 3.13.6
 _ZN25RuleMatch_ICMPTypeAndCode19kTypenumFieldNumberE@Base 3.13.6
 _ZN25RuleMatch_ICMPTypeAndCode21InitAsDefaultInstanceEv@Base 3.13.6
 _ZN25RuleMatch_ICMPTypeAndCode27MergePartialFromCodedStreamEPN6google8protobuf2io16CodedInputStreamE@Base 3.13.6
 _ZN25RuleMatch_ICMPTypeAndCode4SwapEPS_@Base 3.13.6
 _ZN25RuleMatch_ICMPTypeAndCode5ClearEv@Base 3.13.6
 _ZN25RuleMatch_ICMPTypeAndCode8CopyFromERKN6google8protobuf7MessageE@Base 3.13.6
 _ZN25RuleMatch_ICMPTypeAndCode8CopyFromERKS_@Base 3.13.6
 _ZN25RuleMatch_ICMPTypeAndCode9MergeFromERKN6google8protobuf7MessageE@Base 3.13.6
 _ZN25RuleMatch_ICMPTypeAndCode9MergeFromERKS_@Base 3.13.6
 _ZN25RuleMatch_ICMPTypeAndCodeC1ERKS_@Base 3.13.6
 _ZN25RuleMatch_ICMPTypeAndCodeC1Ev@Base 3.13.6
 _ZN25RuleMatch_ICMPTypeAndCodeC2ERKS_@Base 3.13.6
 _ZN25RuleMatch_ICMPTypeAndCodeC2Ev@Base 3.13.6
 _ZN25RuleMatch_ICMPTypeAndCodeD0Ev@Base 3.13.6
 _ZN25RuleMatch_ICMPTypeAndCodeD1Ev@Base 3.13.6
 _ZN25RuleMatch_ICMPTypeAndCodeD2Ev@Base 3.13.6
 _ZN25protobuf_cpp_5frl_2eproto11TableStruct7offsetsE@Base 3.13.6
 _ZN25protobuf_cpp_5frl_2eproto12InitDefaultsEv@Base 3.13.6
 _ZN25protobuf_cpp_5frl_2eproto14AddDescriptorsEv@Base 3.13.6
 _ZN25protobuf_cpp_5frl_2eproto18AddDescriptorsImplEv@Base 3.13.6
 _ZN25protobuf_cpp_5frl_2eproto19file_level_metadataE@Base 3.13.6
 _ZN25protobuf_cpp_5frl_2eproto20scc_info_CPP_limiterE@Base 3.13.6
 _ZN25protobuf_cpp_5frl_2eproto22protobuf_RegisterTypesERKNSt7__cxx1112basic_stringIcSt11char_traitsIcESaIcEEE@Base 3.13.6
 _ZN25protobuf_cpp_5frl_2eproto26protobuf_AssignDescriptorsEv@Base 3.13.6
 _ZN25protobuf_cpp_5frl_2eproto27file_level_enum_descriptorsE@Base 3.13.6
 _ZN25protobuf_cpp_5frl_2eproto29static_descriptor_initializerE@Base 3.13.6
 _ZN25protobuf_cpp_5frl_2eproto30protobuf_AssignDescriptorsOnceEv@Base 3.13.6
 _ZN25protobuf_cpp_5frl_2eproto34scc_info_CPP_limiter_CPP_attributeE@Base 3.13.6
 _ZN25protobuf_cpp_5frl_2eproto48scc_info_CPP_limiter_CPP_attribute_CPP_parameterE@Base 3.13.6
 _ZN26SfpPermitConfig_ListConfig10SharedCtorEv@Base 3.13.34
 _ZN26SfpPermitConfig_ListConfig10SharedDtorEv@Base 3.13.34
 _ZN26SfpPermitConfig_ListConfig10descriptorEv@Base 3.13.34
 _ZN26SfpPermitConfig_ListConfig12InternalSwapEPS_@Base 3.13.34
 _ZN26SfpPermitConfig_ListConfig16default_instanceEv@Base 3.13.34
 _ZN26SfpPermitConfig_ListConfig16kNameFieldNumberE@Base 3.13.34
 _ZN26SfpPermitConfig_ListConfig16kSFPsFieldNumberE@Base 3.13.34
 _ZN26SfpPermitConfig_ListConfig18kActionFieldNumberE@Base 3.13.34
 _ZN26SfpPermitConfig_ListConfig21InitAsDefaultInstanceEv@Base 3.13.34
 _ZN26SfpPermitConfig_ListConfig27MergePartialFromCodedStreamEPN6google8protobuf2io16CodedInputStreamE@Base 3.13.34
 _ZN26SfpPermitConfig_ListConfig4SwapEPS_@Base 3.13.34
 _ZN26SfpPermitConfig_ListConfig5ClearEv@Base 3.13.34
 _ZN26SfpPermitConfig_ListConfig8CopyFromERKN6google8protobuf7MessageE@Base 3.13.34
 _ZN26SfpPermitConfig_ListConfig8CopyFromERKS_@Base 3.13.34
 _ZN26SfpPermitConfig_ListConfig9MergeFromERKN6google8protobuf7MessageE@Base 3.13.34
 _ZN26SfpPermitConfig_ListConfig9MergeFromERKS_@Base 3.13.34
 _ZN26SfpPermitConfig_ListConfigC1ERKS_@Base 3.13.34
 _ZN26SfpPermitConfig_ListConfigC1Ev@Base 3.13.34
 _ZN26SfpPermitConfig_ListConfigC2ERKS_@Base 3.13.34
 _ZN26SfpPermitConfig_ListConfigC2Ev@Base 3.13.34
 _ZN26SfpPermitConfig_ListConfigD0Ev@Base 3.13.34
 _ZN26SfpPermitConfig_ListConfigD1Ev@Base 3.13.34
 _ZN26SfpPermitConfig_ListConfigD2Ev@Base 3.13.34
 _ZN26protobuf_GPCConfig_2eproto11TableStruct7offsetsE@Base 3.13.6
 _ZN26protobuf_GPCConfig_2eproto12InitDefaultsEv@Base 3.13.6
 _ZN26protobuf_GPCConfig_2eproto13scc_info_RuleE@Base 3.13.6
 _ZN26protobuf_GPCConfig_2eproto14AddDescriptorsEv@Base 3.13.6
 _ZN26protobuf_GPCConfig_2eproto14scc_info_RulesE@Base 3.13.6
 _ZN26protobuf_GPCConfig_2eproto17scc_info_GPCTableE@Base 3.13.6
 _ZN26protobuf_GPCConfig_2eproto18AddDescriptorsImplEv@Base 3.13.6
 _ZN26protobuf_GPCConfig_2eproto18scc_info_GPCConfigE@Base 3.13.6
 _ZN26protobuf_GPCConfig_2eproto18scc_info_RuleMatchE@Base 3.13.6
 _ZN26protobuf_GPCConfig_2eproto19file_level_metadataE@Base 3.13.6
 _ZN26protobuf_GPCConfig_2eproto19scc_info_GPCCounterE@Base 3.13.6
 _ZN26protobuf_GPCConfig_2eproto19scc_info_RuleActionE@Base 3.13.6
 _ZN26protobuf_GPCConfig_2eproto20scc_info_RuleCounterE@Base 3.13.6
 _ZN26protobuf_GPCConfig_2eproto22protobuf_RegisterTypesERKNSt7__cxx1112basic_stringIcSt11char_traitsIcESaIcEEE@Base 3.13.6
 _ZN26protobuf_GPCConfig_2eproto22scc_info_PolicerParamsE@Base 3.13.6
 _ZN26protobuf_GPCConfig_2eproto26protobuf_AssignDescriptorsEv@Base 3.13.6
 _ZN26protobuf_GPCConfig_2eproto27file_level_enum_descriptorsE@Base 3.13.6
 _ZN26protobuf_GPCConfig_2eproto29static_descriptor_initializerE@Base 3.13.6
 _ZN26protobuf_GPCConfig_2eproto30protobuf_AssignDescriptorsOnceEv@Base 3.13.6
 _ZN26protobuf_GPCConfig_2eproto34scc_info_RuleMatch_ICMPTypeAndCodeE@Base 3.13.6
 _ZN26protobuf_IPAddress_2eproto11TableStruct7offsetsE@Base 3.13.6
 _ZN26protobuf_IPAddress_2eproto12InitDefaultsEv@Base 3.13.6
 _ZN26protobuf_IPAddress_2eproto14AddDescriptorsEv@Base 3.13.6
 _ZN26protobuf_IPAddress_2eproto17scc_info_IPPrefixE@Base 3.13.6
 _ZN26protobuf_IPAddress_2eproto18AddDescriptorsImplEv@Base 3.13.6
 _ZN26protobuf_IPAddress_2eproto18scc_info_IPAddressE@Base 3.13.6
 _ZN26protobuf_IPAddress_2eproto19file_level_metadataE@Base 3.13.6
 _ZN26protobuf_IPAddress_2eproto22protobuf_RegisterTypesERKNSt7__cxx1112basic_stringIcSt11char_traitsIcESaIcEEE@Base 3.13.6
 _ZN26protobuf_IPAddress_2eproto26protobuf_AssignDescriptorsEv@Base 3.13.6
 _ZN26protobuf_IPAddress_2eproto29static_descriptor_initializerE@Base 3.13.6
 _ZN26protobuf_IPAddress_2eproto30protobuf_AssignDescriptorsOnceEv@Base 3.13.6
 _ZN26protobuf_LAGConfig_2eproto11TableStruct7offsetsE@Base 3.13.6
 _ZN26protobuf_LAGConfig_2eproto12InitDefaultsEv@Base 3.13.6
 _ZN26protobuf_LAGConfig_2eproto14AddDescriptorsEv@Base 3.13.6
 _ZN26protobuf_LAGConfig_2eproto18AddDescriptorsImplEv@Base 3.13.6
 _ZN26protobuf_LAGConfig_2eproto18scc_info_LAGConfigE@Base 3.13.6
 _ZN26protobuf_LAGConfig_2eproto19file_level_metadataE@Base 3.13.6
 _ZN26protobuf_LAGConfig_2eproto22protobuf_RegisterTypesERKNSt7__cxx1112basic_stringIcSt11char_traitsIcESaIcEEE@Base 3.13.6
 _ZN26protobuf_LAGConfig_2eproto26protobuf_AssignDescriptorsEv@Base 3.13.6
 _ZN26protobuf_LAGConfig_2eproto27file_level_enum_descriptorsE@Base 3.13.6
 _ZN26protobuf_LAGConfig_2eproto28scc_info_LAGConfig_LagCreateE@Base 3.13.6
 _ZN26protobuf_LAGConfig_2eproto28scc_info_LAGConfig_LagDeleteE@Base 3.13.6
 _ZN26protobuf_LAGConfig_2eproto29static_descriptor_initializerE@Base 3.13.6
 _ZN26protobuf_LAGConfig_2eproto30protobuf_AssignDescriptorsOnceEv@Base 3.13.6
 _ZN26protobuf_LAGConfig_2eproto40scc_info_LAGConfig_LagCreate_LacpOptionsE@Base 3.13.6
 _ZN26protobuf_RibUpdate_2eproto11TableStruct7offsetsE@Base 3.13.6
 _ZN26protobuf_RibUpdate_2eproto12InitDefaultsEv@Base 3.13.6
 _ZN26protobuf_RibUpdate_2eproto14AddDescriptorsEv@Base 3.13.6
 _ZN26protobuf_RibUpdate_2eproto18AddDescriptorsImplEv@Base 3.13.6
 _ZN26protobuf_RibUpdate_2eproto18scc_info_RibUpdateE@Base 3.13.6
 _ZN26protobuf_RibUpdate_2eproto19file_level_metadataE@Base 3.13.6
 _ZN26protobuf_RibUpdate_2eproto22protobuf_RegisterTypesERKNSt7__cxx1112basic_stringIcSt11char_traitsIcESaIcEEE@Base 3.13.6
 _ZN26protobuf_RibUpdate_2eproto26protobuf_AssignDescriptorsEv@Base 3.13.6
 _ZN26protobuf_RibUpdate_2eproto27file_level_enum_descriptorsE@Base 3.13.6
 _ZN26protobuf_RibUpdate_2eproto29static_descriptor_initializerE@Base 3.13.6
 _ZN26protobuf_RibUpdate_2eproto30protobuf_AssignDescriptorsOnceEv@Base 3.13.6
 _ZN27TWAMPSessionCounterResponse10SharedCtorEv@Base 3.13.34
 _ZN27TWAMPSessionCounterResponse10SharedDtorEv@Base 3.13.34
 _ZN27TWAMPSessionCounterResponse10descriptorEv@Base 3.13.34
 _ZN27TWAMPSessionCounterResponse12InternalSwapEPS_@Base 3.13.34
 _ZN27TWAMPSessionCounterResponse16default_instanceEv@Base 3.13.34
 _ZN27TWAMPSessionCounterResponse17kRxBadFieldNumberE@Base 3.13.34
 _ZN27TWAMPSessionCounterResponse17kTxBadFieldNumberE@Base 3.13.34
 _ZN27TWAMPSessionCounterResponse18kRxPktsFieldNumberE@Base 3.13.34
 _ZN27TWAMPSessionCounterResponse18kTxPktsFieldNumberE@Base 3.13.34
 _ZN27TWAMPSessionCounterResponse21InitAsDefaultInstanceEv@Base 3.13.34
 _ZN27TWAMPSessionCounterResponse27MergePartialFromCodedStreamEPN6google8protobuf2io16CodedInputStreamE@Base 3.13.34
 _ZN27TWAMPSessionCounterResponse4SwapEPS_@Base 3.13.34
 _ZN27TWAMPSessionCounterResponse5ClearEv@Base 3.13.34
 _ZN27TWAMPSessionCounterResponse8CopyFromERKN6google8protobuf7MessageE@Base 3.13.34
 _ZN27TWAMPSessionCounterResponse8CopyFromERKS_@Base 3.13.34
 _ZN27TWAMPSessionCounterResponse9MergeFromERKN6google8protobuf7MessageE@Base 3.13.34
 _ZN27TWAMPSessionCounterResponse9MergeFromERKS_@Base 3.13.34
 _ZN27TWAMPSessionCounterResponseC1ERKS_@Base 3.13.34
 _ZN27TWAMPSessionCounterResponseC1Ev@Base 3.13.34
 _ZN27TWAMPSessionCounterResponseC2ERKS_@Base 3.13.34
 _ZN27TWAMPSessionCounterResponseC2Ev@Base 3.13.34
 _ZN27TWAMPSessionCounterResponseD0Ev@Base 3.13.34
 _ZN27TWAMPSessionCounterResponseD1Ev@Base 3.13.34
 _ZN27TWAMPSessionCounterResponseD2Ev@Base 3.13.34
 _ZN27protobuf_GArpConfig_2eproto11TableStruct7offsetsE@Base 3.13.6
 _ZN27protobuf_GArpConfig_2eproto12InitDefaultsEv@Base 3.13.6
 _ZN27protobuf_GArpConfig_2eproto14AddDescriptorsEv@Base 3.13.6
 _ZN27protobuf_GArpConfig_2eproto18AddDescriptorsImplEv@Base 3.13.6
 _ZN27protobuf_GArpConfig_2eproto19file_level_metadataE@Base 3.13.6
 _ZN27protobuf_GArpConfig_2eproto19scc_info_GArpConfigE@Base 3.13.6
 _ZN27protobuf_GArpConfig_2eproto22protobuf_RegisterTypesERKNSt7__cxx1112basic_stringIcSt11char_traitsIcESaIcEEE@Base 3.13.6
 _ZN27protobuf_GArpConfig_2eproto26protobuf_AssignDescriptorsEv@Base 3.13.6
 _ZN27protobuf_GArpConfig_2eproto27file_level_enum_descriptorsE@Base 3.13.6
 _ZN27protobuf_GArpConfig_2eproto29static_descriptor_initializerE@Base 3.13.6
 _ZN27protobuf_GArpConfig_2eproto30protobuf_AssignDescriptorsOnceEv@Base 3.13.6
 _ZN27protobuf_SFPMonitor_2eproto11TableStruct7offsetsE@Base 3.13.34
 _ZN27protobuf_SFPMonitor_2eproto12InitDefaultsEv@Base 3.13.34
 _ZN27protobuf_SFPMonitor_2eproto14AddDescriptorsEv@Base 3.13.34
 _ZN27protobuf_SFPMonitor_2eproto18AddDescriptorsImplEv@Base 3.13.34
 _ZN27protobuf_SFPMonitor_2eproto19file_level_metadataE@Base 3.13.34
 _ZN27protobuf_SFPMonitor_2eproto22protobuf_RegisterTypesERKNSt7__cxx1112basic_stringIcSt11char_traitsIcESaIcEEE@Base 3.13.34
 _ZN27protobuf_SFPMonitor_2eproto24scc_info_SfpPermitConfigE@Base 3.13.34
 _ZN27protobuf_SFPMonitor_2eproto26protobuf_AssignDescriptorsEv@Base 3.13.34
 _ZN27protobuf_SFPMonitor_2eproto27file_level_enum_descriptorsE@Base 3.13.34
 _ZN27protobuf_SFPMonitor_2eproto28scc_info_SfpPermitConfig_SFPE@Base 3.13.34
 _ZN27protobuf_SFPMonitor_2eproto29static_descriptor_initializerE@Base 3.13.34
 _ZN27protobuf_SFPMonitor_2eproto30protobuf_AssignDescriptorsOnceEv@Base 3.13.34
 _ZN27protobuf_SFPMonitor_2eproto35scc_info_SfpPermitConfig_ListConfigE@Base 3.13.34
 _ZN27protobuf_SFPMonitor_2eproto39scc_info_SfpPermitConfig_MisMatchConfigE@Base 3.13.34
 _ZN28protobuf_PPPOEConfig_2eproto11TableStruct7offsetsE@Base 3.13.6
 _ZN28protobuf_PPPOEConfig_2eproto12InitDefaultsEv@Base 3.13.6
 _ZN28protobuf_PPPOEConfig_2eproto14AddDescriptorsEv@Base 3.13.6
 _ZN28protobuf_PPPOEConfig_2eproto18AddDescriptorsImplEv@Base 3.13.6
 _ZN28protobuf_PPPOEConfig_2eproto19file_level_metadataE@Base 3.13.6
 _ZN28protobuf_PPPOEConfig_2eproto20scc_info_PPPOEConfigE@Base 3.13.6
 _ZN28protobuf_PPPOEConfig_2eproto22protobuf_RegisterTypesERKNSt7__cxx1112basic_stringIcSt11char_traitsIcESaIcEEE@Base 3.13.6
 _ZN28protobuf_PPPOEConfig_2eproto26protobuf_AssignDescriptorsEv@Base 3.13.6
 _ZN28protobuf_PPPOEConfig_2eproto29static_descriptor_initializerE@Base 3.13.6
 _ZN28protobuf_PPPOEConfig_2eproto30protobuf_AssignDescriptorsOnceEv@Base 3.13.6
 _ZN28protobuf_PauseConfig_2eproto11TableStruct7offsetsE@Base 3.13.6
 _ZN28protobuf_PauseConfig_2eproto12InitDefaultsEv@Base 3.13.6
 _ZN28protobuf_PauseConfig_2eproto14AddDescriptorsEv@Base 3.13.6
 _ZN28protobuf_PauseConfig_2eproto18AddDescriptorsImplEv@Base 3.13.6
 _ZN28protobuf_PauseConfig_2eproto19file_level_metadataE@Base 3.13.6
 _ZN28protobuf_PauseConfig_2eproto20scc_info_PauseConfigE@Base 3.13.6
 _ZN28protobuf_PauseConfig_2eproto22protobuf_RegisterTypesERKNSt7__cxx1112basic_stringIcSt11char_traitsIcESaIcEEE@Base 3.13.6
 _ZN28protobuf_PauseConfig_2eproto26protobuf_AssignDescriptorsEv@Base 3.13.6
 _ZN28protobuf_PauseConfig_2eproto27file_level_enum_descriptorsE@Base 3.13.6
 _ZN28protobuf_PauseConfig_2eproto29static_descriptor_initializerE@Base 3.13.6
 _ZN28protobuf_PauseConfig_2eproto30protobuf_AssignDescriptorsOnceEv@Base 3.13.6
 _ZN28protobuf_PauseConfig_2eproto34scc_info_PauseConfig_PauseIfConfigE@Base 3.13.6
 _ZN28protobuf_SessionPack_2eproto11TableStruct7offsetsE@Base 3.13.34
 _ZN28protobuf_SessionPack_2eproto12InitDefaultsEv@Base 3.13.34
 _ZN28protobuf_SessionPack_2eproto14AddDescriptorsEv@Base 3.13.34
 _ZN28protobuf_SessionPack_2eproto18AddDescriptorsImplEv@Base 3.13.34
 _ZN28protobuf_SessionPack_2eproto19file_level_metadataE@Base 3.13.34
 _ZN28protobuf_SessionPack_2eproto21scc_info_DPSessionMsgE@Base 3.13.34
 _ZN28protobuf_SessionPack_2eproto21scc_info_TCPWindowMsgE@Base 3.13.34
 _ZN28protobuf_SessionPack_2eproto22protobuf_RegisterTypesERKNSt7__cxx1112basic_stringIcSt11char_traitsIcESaIcEEE@Base 3.13.34
 _ZN28protobuf_SessionPack_2eproto22scc_info_NPFSessionMsgE@Base 3.13.34
 _ZN28protobuf_SessionPack_2eproto24scc_info_DPSessionKeyMsgE@Base 3.13.34
 _ZN28protobuf_SessionPack_2eproto26protobuf_AssignDescriptorsEv@Base 3.13.34
 _ZN28protobuf_SessionPack_2eproto26scc_info_DPSessionStateMsgE@Base 3.13.34
 _ZN28protobuf_SessionPack_2eproto27scc_info_NPFSessionStateMsgE@Base 3.13.34
 _ZN28protobuf_SessionPack_2eproto27scc_info_PackedDPSessionMsgE@Base 3.13.34
 _ZN28protobuf_SessionPack_2eproto28scc_info_DPSessionCounterMsgE@Base 3.13.34
 _ZN28protobuf_SessionPack_2eproto29static_descriptor_initializerE@Base 3.13.34
 _ZN28protobuf_SessionPack_2eproto30protobuf_AssignDescriptorsOnceEv@Base 3.13.34
 _ZN28protobuf_SpeedConfig_2eproto11TableStruct7offsetsE@Base 3.13.6
 _ZN28protobuf_SpeedConfig_2eproto12InitDefaultsEv@Base 3.13.6
 _ZN28protobuf_SpeedConfig_2eproto14AddDescriptorsEv@Base 3.13.6
 _ZN28protobuf_SpeedConfig_2eproto18AddDescriptorsImplEv@Base 3.13.6
 _ZN28protobuf_SpeedConfig_2eproto19file_level_metadataE@Base 3.13.6
 _ZN28protobuf_SpeedConfig_2eproto20scc_info_SpeedConfigE@Base 3.13.6
 _ZN28protobuf_SpeedConfig_2eproto22protobuf_RegisterTypesERKNSt7__cxx1112basic_stringIcSt11char_traitsIcESaIcEEE@Base 3.13.6
 _ZN28protobuf_SpeedConfig_2eproto26protobuf_AssignDescriptorsEv@Base 3.13.6
 _ZN28protobuf_SpeedConfig_2eproto27file_level_enum_descriptorsE@Base 3.13.6
 _ZN28protobuf_SpeedConfig_2eproto29static_descriptor_initializerE@Base 3.13.6
 _ZN28protobuf_SpeedConfig_2eproto30protobuf_AssignDescriptorsOnceEv@Base 3.13.6
 _ZN28protobuf_SynceConfig_2eproto11TableStruct7offsetsE@Base 3.13.6
 _ZN28protobuf_SynceConfig_2eproto12InitDefaultsEv@Base 3.13.6
 _ZN28protobuf_SynceConfig_2eproto14AddDescriptorsEv@Base 3.13.6
 _ZN28protobuf_SynceConfig_2eproto18AddDescriptorsImplEv@Base 3.13.6
 _ZN28protobuf_SynceConfig_2eproto19file_level_metadataE@Base 3.13.6
 _ZN28protobuf_SynceConfig_2eproto20scc_info_SynceConfigE@Base 3.13.6
 _ZN28protobuf_SynceConfig_2eproto22protobuf_RegisterTypesERKNSt7__cxx1112basic_stringIcSt11char_traitsIcESaIcEEE@Base 3.13.6
 _ZN28protobuf_SynceConfig_2eproto26protobuf_AssignDescriptorsEv@Base 3.13.6
 _ZN28protobuf_SynceConfig_2eproto27file_level_enum_descriptorsE@Base 3.13.6
 _ZN28protobuf_SynceConfig_2eproto29static_descriptor_initializerE@Base 3.13.6
 _ZN28protobuf_SynceConfig_2eproto30protobuf_AssignDescriptorsOnceEv@Base 3.13.6
 _ZN29protobuf_CgnatLogging_2eproto11TableStruct7offsetsE@Base 3.13.6
 _ZN29protobuf_CgnatLogging_2eproto12InitDefaultsEv@Base 3.13.6
 _ZN29protobuf_CgnatLogging_2eproto14AddDescriptorsEv@Base 3.13.6
 _ZN29protobuf_CgnatLogging_2eproto17scc_info_CgnatLogE@Base 3.13.6
 _ZN29protobuf_CgnatLogging_2eproto18AddDescriptorsImplEv@Base 3.13.6
 _ZN29protobuf_CgnatLogging_2eproto18scc_info_TimestampE@Base 3.13.6
 _ZN29protobuf_CgnatLogging_2eproto19file_level_metadataE@Base 3.13.6
 _ZN29protobuf_CgnatLogging_2eproto19scc_info_SessionLogE@Base 3.13.6
 _ZN29protobuf_CgnatLogging_2eproto22protobuf_RegisterTypesERKNSt7__cxx1112basic_stringIcSt11char_traitsIcESaIcEEE@Base 3.13.6
 _ZN29protobuf_CgnatLogging_2eproto22scc_info_ConstraintLogE@Base 3.13.6
 _ZN29protobuf_CgnatLogging_2eproto22scc_info_SubscriberLogE@Base 3.13.6
 _ZN29protobuf_CgnatLogging_2eproto26protobuf_AssignDescriptorsEv@Base 3.13.6
 _ZN29protobuf_CgnatLogging_2eproto26scc_info_PortAllocationLogE@Base 3.13.6
 _ZN29protobuf_CgnatLogging_2eproto27file_level_enum_descriptorsE@Base 3.13.6
 _ZN29protobuf_CgnatLogging_2eproto29static_descriptor_initializerE@Base 3.13.6
 _ZN29protobuf_CgnatLogging_2eproto30protobuf_AssignDescriptorsOnceEv@Base 3.13.6
 _ZN29protobuf_NbrResConfig_2eproto11TableStruct7offsetsE@Base 3.13.6
 _ZN29protobuf_NbrResConfig_2eproto12InitDefaultsEv@Base 3.13.6
 _ZN29protobuf_NbrResConfig_2eproto14AddDescriptorsEv@Base 3.13.6
 _ZN29protobuf_NbrResConfig_2eproto18AddDescriptorsImplEv@Base 3.13.6
 _ZN29protobuf_NbrResConfig_2eproto19file_level_metadataE@Base 3.13.6
 _ZN29protobuf_NbrResConfig_2eproto21scc_info_NbrResConfigE@Base 3.13.6
 _ZN29protobuf_NbrResConfig_2eproto22protobuf_RegisterTypesERKNSt7__cxx1112basic_stringIcSt11char_traitsIcESaIcEEE@Base 3.13.6
 _ZN29protobuf_NbrResConfig_2eproto26protobuf_AssignDescriptorsEv@Base 3.13.6
 _ZN29protobuf_NbrResConfig_2eproto27file_level_enum_descriptorsE@Base 3.13.6
 _ZN29protobuf_NbrResConfig_2eproto29static_descriptor_initializerE@Base 3.13.6
 _ZN29protobuf_NbrResConfig_2eproto30protobuf_AssignDescriptorsOnceEv@Base 3.13.6
 _ZN29protobuf_TCPMSSConfig_2eproto11TableStruct7offsetsE@Base 3.13.6
 _ZN29protobuf_TCPMSSConfig_2eproto12InitDefaultsEv@Base 3.13.6
 _ZN29protobuf_TCPMSSConfig_2eproto14AddDescriptorsEv@Base 3.13.6
 _ZN29protobuf_TCPMSSConfig_2eproto18AddDescriptorsImplEv@Base 3.13.6
 _ZN29protobuf_TCPMSSConfig_2eproto19file_level_metadataE@Base 3.13.6
 _ZN29protobuf_TCPMSSConfig_2eproto21scc_info_TCPMSSConfigE@Base 3.13.6
 _ZN29protobuf_TCPMSSConfig_2eproto22protobuf_RegisterTypesERKNSt7__cxx1112basic_stringIcSt11char_traitsIcESaIcEEE@Base 3.13.6
 _ZN29protobuf_TCPMSSConfig_2eproto26protobuf_AssignDescriptorsEv@Base 3.13.6
 _ZN29protobuf_TCPMSSConfig_2eproto27file_level_enum_descriptorsE@Base 3.13.6
 _ZN29protobuf_TCPMSSConfig_2eproto29static_descriptor_initializerE@Base 3.13.6
 _ZN29protobuf_TCPMSSConfig_2eproto30protobuf_AssignDescriptorsOnceEv@Base 3.13.6
 _ZN29protobuf_VFPSetConfig_2eproto11TableStruct7offsetsE@Base 3.13.6
 _ZN29protobuf_VFPSetConfig_2eproto12InitDefaultsEv@Base 3.13.6
 _ZN29protobuf_VFPSetConfig_2eproto14AddDescriptorsEv@Base 3.13.6
 _ZN29protobuf_VFPSetConfig_2eproto18AddDescriptorsImplEv@Base 3.13.6
 _ZN29protobuf_VFPSetConfig_2eproto19file_level_metadataE@Base 3.13.6
 _ZN29protobuf_VFPSetConfig_2eproto21scc_info_VFPSetConfigE@Base 3.13.6
 _ZN29protobuf_VFPSetConfig_2eproto22protobuf_RegisterTypesERKNSt7__cxx1112basic_stringIcSt11char_traitsIcESaIcEEE@Base 3.13.6
 _ZN29protobuf_VFPSetConfig_2eproto26protobuf_AssignDescriptorsEv@Base 3.13.6
 _ZN29protobuf_VFPSetConfig_2eproto27file_level_enum_descriptorsE@Base 3.13.6
 _ZN29protobuf_VFPSetConfig_2eproto29static_descriptor_initializerE@Base 3.13.6
 _ZN29protobuf_VFPSetConfig_2eproto30protobuf_AssignDescriptorsOnceEv@Base 3.13.6
 _ZN30SfpPermitConfig_MisMatchConfig10SharedCtorEv@Base 3.13.34
 _ZN30SfpPermitConfig_MisMatchConfig10SharedDtorEv@Base 3.13.34
 _ZN30SfpPermitConfig_MisMatchConfig10descriptorEv@Base 3.13.34
 _ZN30SfpPermitConfig_MisMatchConfig12InternalSwapEPS_@Base 3.13.34
 _ZN30SfpPermitConfig_MisMatchConfig16default_instanceEv@Base 3.13.34
 _ZN30SfpPermitConfig_MisMatchConfig17kDelayFieldNumberE@Base 3.13.34
 _ZN30SfpPermitConfig_MisMatchConfig18kActionFieldNumberE@Base 3.13.34
 _ZN30SfpPermitConfig_MisMatchConfig19kLoggingFieldNumberE@Base 3.13.34
 _ZN30SfpPermitConfig_MisMatchConfig21InitAsDefaultInstanceEv@Base 3.13.34
 _ZN30SfpPermitConfig_MisMatchConfig23kEnforcementFieldNumberE@Base 3.13.34
 _ZN30SfpPermitConfig_MisMatchConfig27MergePartialFromCodedStreamEPN6google8protobuf2io16CodedInputStreamE@Base 3.13.34
 _ZN30SfpPermitConfig_MisMatchConfig4SwapEPS_@Base 3.13.34
 _ZN30SfpPermitConfig_MisMatchConfig5ClearEv@Base 3.13.34
 _ZN30SfpPermitConfig_MisMatchConfig8CopyFromERKN6google8protobuf7MessageE@Base 3.13.34
 _ZN30SfpPermitConfig_MisMatchConfig8CopyFromERKS_@Base 3.13.34
 _ZN30SfpPermitConfig_MisMatchConfig9MergeFromERKN6google8protobuf7MessageE@Base 3.13.34
 _ZN30SfpPermitConfig_MisMatchConfig9MergeFromERKS_@Base 3.13.34
 _ZN30SfpPermitConfig_MisMatchConfigC1ERKS_@Base 3.13.34
 _ZN30SfpPermitConfig_MisMatchConfigC1Ev@Base 3.13.34
 _ZN30SfpPermitConfig_MisMatchConfigC2ERKS_@Base 3.13.34
 _ZN30SfpPermitConfig_MisMatchConfigC2Ev@Base 3.13.34
 _ZN30SfpPermitConfig_MisMatchConfigD0Ev@Base 3.13.34
 _ZN30SfpPermitConfig_MisMatchConfigD1Ev@Base 3.13.34
 _ZN30SfpPermitConfig_MisMatchConfigD2Ev@Base 3.13.34
 _ZN31BreakoutConfig_BreakoutIfConfig10SharedCtorEv@Base 3.13.6
 _ZN31BreakoutConfig_BreakoutIfConfig10SharedDtorEv@Base 3.13.6
 _ZN31BreakoutConfig_BreakoutIfConfig10descriptorEv@Base 3.13.6
 _ZN31BreakoutConfig_BreakoutIfConfig12InternalSwapEPS_@Base 3.13.6
 _ZN31BreakoutConfig_BreakoutIfConfig16default_instanceEv@Base 3.13.6
 _ZN31BreakoutConfig_BreakoutIfConfig18kActionFieldNumberE@Base 3.13.6
 _ZN31BreakoutConfig_BreakoutIfConfig18kIfnameFieldNumberE@Base 3.13.6
 _ZN31BreakoutConfig_BreakoutIfConfig21InitAsDefaultInstanceEv@Base 3.13.6
 _ZN31BreakoutConfig_BreakoutIfConfig23kNumsubportsFieldNumberE@Base 3.13.6
 _ZN31BreakoutConfig_BreakoutIfConfig26kReservedifnameFieldNumberE@Base 3.13.6
 _ZN31BreakoutConfig_BreakoutIfConfig27MergePartialFromCodedStreamEPN6google8protobuf2io16CodedInputStreamE@Base 3.13.6
 _ZN31BreakoutConfig_BreakoutIfConfig4SwapEPS_@Base 3.13.6
 _ZN31BreakoutConfig_BreakoutIfConfig5ClearEv@Base 3.13.6
 _ZN31BreakoutConfig_BreakoutIfConfig8CopyFromERKN6google8protobuf7MessageE@Base 3.13.6
 _ZN31BreakoutConfig_BreakoutIfConfig8CopyFromERKS_@Base 3.13.6
 _ZN31BreakoutConfig_BreakoutIfConfig9MergeFromERKN6google8protobuf7MessageE@Base 3.13.6
 _ZN31BreakoutConfig_BreakoutIfConfig9MergeFromERKS_@Base 3.13.6
 _ZN31BreakoutConfig_BreakoutIfConfigC1ERKS_@Base 3.13.6
 _ZN31BreakoutConfig_BreakoutIfConfigC1Ev@Base 3.13.6
 _ZN31BreakoutConfig_BreakoutIfConfigC2ERKS_@Base 3.13.6
 _ZN31BreakoutConfig_BreakoutIfConfigC2Ev@Base 3.13.6
 _ZN31BreakoutConfig_BreakoutIfConfigD0Ev@Base 3.13.6
 _ZN31BreakoutConfig_BreakoutIfConfigD1Ev@Base 3.13.6
 _ZN31BreakoutConfig_BreakoutIfConfigD2Ev@Base 3.13.6
 _ZN31LAGConfig_LagCreate_LacpOptions10SharedCtorEv@Base 3.13.6
 _ZN31LAGConfig_LagCreate_LacpOptions10SharedDtorEv@Base 3.13.6
 _ZN31LAGConfig_LagCreate_LacpOptions10descriptorEv@Base 3.13.6
 _ZN31LAGConfig_LagCreate_LacpOptions12InternalSwapEPS_@Base 3.13.6
 _ZN31LAGConfig_LagCreate_LacpOptions15kKeyFieldNumberE@Base 3.13.6
 _ZN31LAGConfig_LagCreate_LacpOptions16default_instanceEv@Base 3.13.6
 _ZN31LAGConfig_LagCreate_LacpOptions21InitAsDefaultInstanceEv@Base 3.13.6
 _ZN31LAGConfig_LagCreate_LacpOptions24kLacpActivityFieldNumberE@Base 3.13.6
 _ZN31LAGConfig_LagCreate_LacpOptions24kPeriodicRateFieldNumberE@Base 3.13.6
 _ZN31LAGConfig_LagCreate_LacpOptions27MergePartialFromCodedStreamEPN6google8protobuf2io16CodedInputStreamE@Base 3.13.6
 _ZN31LAGConfig_LagCreate_LacpOptions4SwapEPS_@Base 3.13.6
 _ZN31LAGConfig_LagCreate_LacpOptions5ClearEv@Base 3.13.6
 _ZN31LAGConfig_LagCreate_LacpOptions8CopyFromERKN6google8protobuf7MessageE@Base 3.13.6
 _ZN31LAGConfig_LagCreate_LacpOptions8CopyFromERKS_@Base 3.13.6
 _ZN31LAGConfig_LagCreate_LacpOptions9MergeFromERKN6google8protobuf7MessageE@Base 3.13.6
 _ZN31LAGConfig_LagCreate_LacpOptions9MergeFromERKS_@Base 3.13.6
 _ZN31LAGConfig_LagCreate_LacpOptionsC1ERKS_@Base 3.13.6
 _ZN31LAGConfig_LagCreate_LacpOptionsC1Ev@Base 3.13.6
 _ZN31LAGConfig_LagCreate_LacpOptionsC2ERKS_@Base 3.13.6
 _ZN31LAGConfig_LagCreate_LacpOptionsC2Ev@Base 3.13.6
 _ZN31LAGConfig_LagCreate_LacpOptionsD0Ev@Base 3.13.6
 _ZN31LAGConfig_LagCreate_LacpOptionsD1Ev@Base 3.13.6
 _ZN31LAGConfig_LagCreate_LacpOptionsD2Ev@Base 3.13.6
 _ZN31protobuf_BreakoutConfig_2eproto11TableStruct7offsetsE@Base 3.13.6
 _ZN31protobuf_BreakoutConfig_2eproto12InitDefaultsEv@Base 3.13.6
 _ZN31protobuf_BreakoutConfig_2eproto14AddDescriptorsEv@Base 3.13.6
 _ZN31protobuf_BreakoutConfig_2eproto18AddDescriptorsImplEv@Base 3.13.6
 _ZN31protobuf_BreakoutConfig_2eproto19file_level_metadataE@Base 3.13.6
 _ZN31protobuf_BreakoutConfig_2eproto22protobuf_RegisterTypesERKNSt7__cxx1112basic_stringIcSt11char_traitsIcESaIcEEE@Base 3.13.6
 _ZN31protobuf_BreakoutConfig_2eproto23scc_info_BreakoutConfigE@Base 3.13.6
 _ZN31protobuf_BreakoutConfig_2eproto26protobuf_AssignDescriptorsEv@Base 3.13.6
 _ZN31protobuf_BreakoutConfig_2eproto27file_level_enum_descriptorsE@Base 3.13.6
 _ZN31protobuf_BreakoutConfig_2eproto29static_descriptor_initializerE@Base 3.13.6
 _ZN31protobuf_BreakoutConfig_2eproto30protobuf_AssignDescriptorsOnceEv@Base 3.13.6
 _ZN31protobuf_BreakoutConfig_2eproto40scc_info_BreakoutConfig_BreakoutIfConfigE@Base 3.13.6
 _ZN31protobuf_MacLimitConfig_2eproto11TableStruct7offsetsE@Base 3.13.6
 _ZN31protobuf_MacLimitConfig_2eproto12InitDefaultsEv@Base 3.13.6
 _ZN31protobuf_MacLimitConfig_2eproto14AddDescriptorsEv@Base 3.13.6
 _ZN31protobuf_MacLimitConfig_2eproto18AddDescriptorsImplEv@Base 3.13.6
 _ZN31protobuf_MacLimitConfig_2eproto19file_level_metadataE@Base 3.13.6
 _ZN31protobuf_MacLimitConfig_2eproto22protobuf_RegisterTypesERKNSt7__cxx1112basic_stringIcSt11char_traitsIcESaIcEEE@Base 3.13.6
 _ZN31protobuf_MacLimitConfig_2eproto23scc_info_MacLimitConfigE@Base 3.13.6
 _ZN31protobuf_MacLimitConfig_2eproto26protobuf_AssignDescriptorsEv@Base 3.13.6
 _ZN31protobuf_MacLimitConfig_2eproto27file_level_enum_descriptorsE@Base 3.13.6
 _ZN31protobuf_MacLimitConfig_2eproto29static_descriptor_initializerE@Base 3.13.6
 _ZN31protobuf_MacLimitConfig_2eproto30protobuf_AssignDescriptorsOnceEv@Base 3.13.6
 _ZN31protobuf_MacLimitConfig_2eproto44scc_info_MacLimitConfig_MacLimitIfVLANConfigE@Base 3.13.6
 _ZN31protobuf_MacLimitConfig_2eproto45scc_info_MacLimitConfig_MacLimitProfileConfigE@Base 3.13.6
 _ZN31protobuf_TwampResponder_2eproto11TableStruct7offsetsE@Base 3.13.34
 _ZN31protobuf_TwampResponder_2eproto12InitDefaultsEv@Base 3.13.34
 _ZN31protobuf_TwampResponder_2eproto14AddDescriptorsEv@Base 3.13.34
 _ZN31protobuf_TwampResponder_2eproto17scc_info_TWAMPCmdE@Base 3.13.34
 _ZN31protobuf_TwampResponder_2eproto18AddDescriptorsImplEv@Base 3.13.34
 _ZN31protobuf_TwampResponder_2eproto19file_level_metadataE@Base 3.13.34
 _ZN31protobuf_TwampResponder_2eproto22protobuf_RegisterTypesERKNSt7__cxx1112basic_stringIcSt11char_traitsIcESaIcEEE@Base 3.13.34
 _ZN31protobuf_TwampResponder_2eproto24scc_info_TWAMPInitialiseE@Base 3.13.34
 _ZN31protobuf_TwampResponder_2eproto24scc_info_TWAMPSessionKeyE@Base 3.13.34
 _ZN31protobuf_TwampResponder_2eproto25scc_info_TWAMPCmdResponseE@Base 3.13.34
 _ZN31protobuf_TwampResponder_2eproto26protobuf_AssignDescriptorsEv@Base 3.13.34
 _ZN31protobuf_TwampResponder_2eproto27file_level_enum_descriptorsE@Base 3.13.34
 _ZN31protobuf_TwampResponder_2eproto27scc_info_TWAMPSessionCreateE@Base 3.13.34
 _ZN31protobuf_TwampResponder_2eproto27scc_info_TWAMPSessionDeleteE@Base 3.13.34
 _ZN31protobuf_TwampResponder_2eproto29scc_info_TWAMPSessionCountersE@Base 3.13.34
 _ZN31protobuf_TwampResponder_2eproto29static_descriptor_initializerE@Base 3.13.34
 _ZN31protobuf_TwampResponder_2eproto30protobuf_AssignDescriptorsOnceEv@Base 3.13.34
 _ZN31protobuf_TwampResponder_2eproto36scc_info_TWAMPSessionCounterResponseE@Base 3.13.34
 _ZN31protobuf_XConnectConfig_2eproto11TableStruct7offsetsE@Base 3.13.6
 _ZN31protobuf_XConnectConfig_2eproto12InitDefaultsEv@Base 3.13.6
 _ZN31protobuf_XConnectConfig_2eproto14AddDescriptorsEv@Base 3.13.6
 _ZN31protobuf_XConnectConfig_2eproto18AddDescriptorsImplEv@Base 3.13.6
 _ZN31protobuf_XConnectConfig_2eproto19file_level_metadataE@Base 3.13.6
 _ZN31protobuf_XConnectConfig_2eproto22protobuf_RegisterTypesERKNSt7__cxx1112basic_stringIcSt11char_traitsIcESaIcEEE@Base 3.13.6
 _ZN31protobuf_XConnectConfig_2eproto23scc_info_XConnectConfigE@Base 3.13.6
 _ZN31protobuf_XConnectConfig_2eproto26protobuf_AssignDescriptorsEv@Base 3.13.6
 _ZN31protobuf_XConnectConfig_2eproto27file_level_enum_descriptorsE@Base 3.13.6
 _ZN31protobuf_XConnectConfig_2eproto29static_descriptor_initializerE@Base 3.13.6
 _ZN31protobuf_XConnectConfig_2eproto30protobuf_AssignDescriptorsOnceEv@Base 3.13.6
 _ZN33protobuf_IPAddressOrLabel_2eproto11TableStruct7offsetsE@Base 3.13.6
 _ZN33protobuf_IPAddressOrLabel_2eproto12InitDefaultsEv@Base 3.13.6
 _ZN33protobuf_IPAddressOrLabel_2eproto14AddDescriptorsEv@Base 3.13.6
 _ZN33protobuf_IPAddressOrLabel_2eproto18AddDescriptorsImplEv@Base 3.13.6
 _ZN33protobuf_IPAddressOrLabel_2eproto19file_level_metadataE@Base 3.13.6
 _ZN33protobuf_IPAddressOrLabel_2eproto22protobuf_RegisterTypesERKNSt7__cxx1112basic_stringIcSt11char_traitsIcESaIcEEE@Base 3.13.6
 _ZN33protobuf_IPAddressOrLabel_2eproto25scc_info_IPAddressOrLabelE@Base 3.13.6
 _ZN33protobuf_IPAddressOrLabel_2eproto26protobuf_AssignDescriptorsEv@Base 3.13.6
 _ZN33protobuf_IPAddressOrLabel_2eproto29static_descriptor_initializerE@Base 3.13.6
 _ZN33protobuf_IPAddressOrLabel_2eproto30protobuf_AssignDescriptorsOnceEv@Base 3.13.6
 _ZN34protobuf_DataplaneEnvelope_2eproto11TableStruct7offsetsE@Base 3.13.6
 _ZN34protobuf_DataplaneEnvelope_2eproto12InitDefaultsEv@Base 3.13.6
 _ZN34protobuf_DataplaneEnvelope_2eproto14AddDescriptorsEv@Base 3.13.6
 _ZN34protobuf_DataplaneEnvelope_2eproto18AddDescriptorsImplEv@Base 3.13.6
 _ZN34protobuf_DataplaneEnvelope_2eproto19file_level_metadataE@Base 3.13.6
 _ZN34protobuf_DataplaneEnvelope_2eproto22protobuf_RegisterTypesERKNSt7__cxx1112basic_stringIcSt11char_traitsIcESaIcEEE@Base 3.13.6
 _ZN34protobuf_DataplaneEnvelope_2eproto26protobuf_AssignDescriptorsEv@Base 3.13.6
 _ZN34protobuf_DataplaneEnvelope_2eproto26scc_info_DataplaneEnvelopeE@Base 3.13.6
 _ZN34protobuf_DataplaneEnvelope_2eproto29static_descriptor_initializerE@Base 3.13.6
 _ZN34protobuf_DataplaneEnvelope_2eproto30protobuf_AssignDescriptorsOnceEv@Base 3.13.6
 _ZN34protobuf_ICMPRateLimConfig_2eproto11TableStruct7offsetsE@Base 3.13.34
 _ZN34protobuf_ICMPRateLimConfig_2eproto12InitDefaultsEv@Base 3.13.34
 _ZN34protobuf_ICMPRateLimConfig_2eproto14AddDescriptorsEv@Base 3.13.34
 _ZN34protobuf_ICMPRateLimConfig_2eproto18AddDescriptorsImplEv@Base 3.13.34
 _ZN34protobuf_ICMPRateLimConfig_2eproto19file_level_metadataE@Base 3.13.34
 _ZN34protobuf_ICMPRateLimConfig_2eproto22protobuf_RegisterTypesERKNSt7__cxx1112basic_stringIcSt11char_traitsIcESaIcEEE@Base 3.13.34
 _ZN34protobuf_ICMPRateLimConfig_2eproto26protobuf_AssignDescriptorsEv@Base 3.13.34
 _ZN34protobuf_ICMPRateLimConfig_2eproto26scc_info_ICMPRateLimConfigE@Base 3.13.34
 _ZN34protobuf_ICMPRateLimConfig_2eproto27file_level_enum_descriptorsE@Base 3.13.34
 _ZN34protobuf_ICMPRateLimConfig_2eproto29static_descriptor_initializerE@Base 3.13.34
 _ZN34protobuf_ICMPRateLimConfig_2eproto30protobuf_AssignDescriptorsOnceEv@Base 3.13.34
 _ZN35MacLimitConfig_MacLimitIfVLANConfig10SharedCtorEv@Base 3.13.6
 _ZN35MacLimitConfig_MacLimitIfVLANConfig10SharedDtorEv@Base 3.13.6
 _ZN35MacLimitConfig_MacLimitIfVLANConfig10descriptorEv@Base 3.13.6
 _ZN35MacLimitConfig_MacLimitIfVLANConfig12InternalSwapEPS_@Base 3.13.6
 _ZN35MacLimitConfig_MacLimitIfVLANConfig16default_instanceEv@Base 3.13.6
 _ZN35MacLimitConfig_MacLimitIfVLANConfig16kVlanFieldNumberE@Base 3.13.6
 _ZN35MacLimitConfig_MacLimitIfVLANConfig18kActionFieldNumberE@Base 3.13.6
 _ZN35MacLimitConfig_MacLimitIfVLANConfig18kIfnameFieldNumberE@Base 3.13.6
 _ZN35MacLimitConfig_MacLimitIfVLANConfig19kProfileFieldNumberE@Base 3.13.6
 _ZN35MacLimitConfig_MacLimitIfVLANConfig21InitAsDefaultInstanceEv@Base 3.13.6
 _ZN35MacLimitConfig_MacLimitIfVLANConfig27MergePartialFromCodedStreamEPN6google8protobuf2io16CodedInputStreamE@Base 3.13.6
 _ZN35MacLimitConfig_MacLimitIfVLANConfig4SwapEPS_@Base 3.13.6
 _ZN35MacLimitConfig_MacLimitIfVLANConfig5ClearEv@Base 3.13.6
 _ZN35MacLimitConfig_MacLimitIfVLANConfig8CopyFromERKN6google8protobuf7MessageE@Base 3.13.6
 _ZN35MacLimitConfig_MacLimitIfVLANConfig8CopyFromERKS_@Base 3.13.6
 _ZN35MacLimitConfig_MacLimitIfVLANConfig9MergeFromERKN6google8protobuf7MessageE@Base 3.13.6
 _ZN35MacLimitConfig_MacLimitIfVLANConfig9MergeFromERKS_@Base 3.13.6
 _ZN35MacLimitConfig_MacLimitIfVLANConfigC1ERKS_@Base 3.13.6
 _ZN35MacLimitConfig_MacLimitIfVLANConfigC1Ev@Base 3.13.6
 _ZN35MacLimitConfig_MacLimitIfVLANConfigC2ERKS_@Base 3.13.6
 _ZN35MacLimitConfig_MacLimitIfVLANConfigC2Ev@Base 3.13.6
 _ZN35MacLimitConfig_MacLimitIfVLANConfigD0Ev@Base 3.13.6
 _ZN35MacLimitConfig_MacLimitIfVLANConfigD1Ev@Base 3.13.6
 _ZN35MacLimitConfig_MacLimitIfVLANConfigD2Ev@Base 3.13.6
 _ZN35protobuf_CryptoPolicyConfig_2eproto11TableStruct7offsetsE@Base 3.13.6
 _ZN35protobuf_CryptoPolicyConfig_2eproto12InitDefaultsEv@Base 3.13.6
 _ZN35protobuf_CryptoPolicyConfig_2eproto14AddDescriptorsEv@Base 3.13.6
 _ZN35protobuf_CryptoPolicyConfig_2eproto18AddDescriptorsImplEv@Base 3.13.6
 _ZN35protobuf_CryptoPolicyConfig_2eproto19file_level_metadataE@Base 3.13.6
 _ZN35protobuf_CryptoPolicyConfig_2eproto22protobuf_RegisterTypesERKNSt7__cxx1112basic_stringIcSt11char_traitsIcESaIcEEE@Base 3.13.6
 _ZN35protobuf_CryptoPolicyConfig_2eproto26protobuf_AssignDescriptorsEv@Base 3.13.6
 _ZN35protobuf_CryptoPolicyConfig_2eproto27file_level_enum_descriptorsE@Base 3.13.6
 _ZN35protobuf_CryptoPolicyConfig_2eproto27scc_info_CryptoPolicyConfigE@Base 3.13.6
 _ZN35protobuf_CryptoPolicyConfig_2eproto29static_descriptor_initializerE@Base 3.13.6
 _ZN35protobuf_CryptoPolicyConfig_2eproto30protobuf_AssignDescriptorsOnceEv@Base 3.13.6
 _ZN35protobuf_IP6RedirectsConfig_2eproto11TableStruct7offsetsE@Base 3.13.6
 _ZN35protobuf_IP6RedirectsConfig_2eproto12InitDefaultsEv@Base 3.13.6
 _ZN35protobuf_IP6RedirectsConfig_2eproto14AddDescriptorsEv@Base 3.13.6
 _ZN35protobuf_IP6RedirectsConfig_2eproto18AddDescriptorsImplEv@Base 3.13.6
 _ZN35protobuf_IP6RedirectsConfig_2eproto19file_level_metadataE@Base 3.13.6
 _ZN35protobuf_IP6RedirectsConfig_2eproto22protobuf_RegisterTypesERKNSt7__cxx1112basic_stringIcSt11char_traitsIcESaIcEEE@Base 3.13.6
 _ZN35protobuf_IP6RedirectsConfig_2eproto26protobuf_AssignDescriptorsEv@Base 3.13.6
 _ZN35protobuf_IP6RedirectsConfig_2eproto27scc_info_IP6RedirectsConfigE@Base 3.13.6
 _ZN35protobuf_IP6RedirectsConfig_2eproto29static_descriptor_initializerE@Base 3.13.6
 _ZN35protobuf_IP6RedirectsConfig_2eproto30protobuf_AssignDescriptorsOnceEv@Base 3.13.6
 _ZN36MacLimitConfig_MacLimitProfileConfig10SharedCtorEv@Base 3.13.6
 _ZN36MacLimitConfig_MacLimitProfileConfig10SharedDtorEv@Base 3.13.6
 _ZN36MacLimitConfig_MacLimitProfileConfig10descriptorEv@Base 3.13.6
 _ZN36MacLimitConfig_MacLimitProfileConfig12InternalSwapEPS_@Base 3.13.6
 _ZN36MacLimitConfig_MacLimitProfileConfig16default_instanceEv@Base 3.13.6
 _ZN36MacLimitConfig_MacLimitProfileConfig17kLimitFieldNumberE@Base 3.13.6
 _ZN36MacLimitConfig_MacLimitProfileConfig18kActionFieldNumberE@Base 3.13.6
 _ZN36MacLimitConfig_MacLimitProfileConfig19kProfileFieldNumberE@Base 3.13.6
 _ZN36MacLimitConfig_MacLimitProfileConfig21InitAsDefaultInstanceEv@Base 3.13.6
 _ZN36MacLimitConfig_MacLimitProfileConfig27MergePartialFromCodedStreamEPN6google8protobuf2io16CodedInputStreamE@Base 3.13.6
 _ZN36MacLimitConfig_MacLimitProfileConfig4SwapEPS_@Base 3.13.6
 _ZN36MacLimitConfig_MacLimitProfileConfig5ClearEv@Base 3.13.6
 _ZN36MacLimitConfig_MacLimitProfileConfig8CopyFromERKN6google8protobuf7MessageE@Base 3.13.6
 _ZN36MacLimitConfig_MacLimitProfileConfig8CopyFromERKS_@Base 3.13.6
 _ZN36MacLimitConfig_MacLimitProfileConfig9MergeFromERKN6google8protobuf7MessageE@Base 3.13.6
 _ZN36MacLimitConfig_MacLimitProfileConfig9MergeFromERKS_@Base 3.13.6
 _ZN36MacLimitConfig_MacLimitProfileConfigC1ERKS_@Base 3.13.6
 _ZN36MacLimitConfig_MacLimitProfileConfigC1Ev@Base 3.13.6
 _ZN36MacLimitConfig_MacLimitProfileConfigC2ERKS_@Base 3.13.6
 _ZN36MacLimitConfig_MacLimitProfileConfigC2Ev@Base 3.13.6
 _ZN36MacLimitConfig_MacLimitProfileConfigD0Ev@Base 3.13.6
 _ZN36MacLimitConfig_MacLimitProfileConfigD1Ev@Base 3.13.6
 _ZN36MacLimitConfig_MacLimitProfileConfigD2Ev@Base 3.13.6
 _ZN36protobuf_PipelineStatsConfig_2eproto11TableStruct7offsetsE@Base 3.13.6
 _ZN36protobuf_PipelineStatsConfig_2eproto12InitDefaultsEv@Base 3.13.6
 _ZN36protobuf_PipelineStatsConfig_2eproto14AddDescriptorsEv@Base 3.13.6
 _ZN36protobuf_PipelineStatsConfig_2eproto18AddDescriptorsImplEv@Base 3.13.6
 _ZN36protobuf_PipelineStatsConfig_2eproto19file_level_metadataE@Base 3.13.6
 _ZN36protobuf_PipelineStatsConfig_2eproto22protobuf_RegisterTypesERKNSt7__cxx1112basic_stringIcSt11char_traitsIcESaIcEEE@Base 3.13.6
 _ZN36protobuf_PipelineStatsConfig_2eproto26protobuf_AssignDescriptorsEv@Base 3.13.6
 _ZN36protobuf_PipelineStatsConfig_2eproto28scc_info_PipelineStatsConfigE@Base 3.13.6
 _ZN36protobuf_PipelineStatsConfig_2eproto29static_descriptor_initializerE@Base 3.13.6
 _ZN36protobuf_PipelineStatsConfig_2eproto30protobuf_AssignDescriptorsOnceEv@Base 3.13.6
 _ZN38protobuf_FeatureAffinityConfig_2eproto11TableStruct7offsetsE@Base 3.13.6
 _ZN38protobuf_FeatureAffinityConfig_2eproto12InitDefaultsEv@Base 3.13.6
 _ZN38protobuf_FeatureAffinityConfig_2eproto14AddDescriptorsEv@Base 3.13.6
 _ZN38protobuf_FeatureAffinityConfig_2eproto18AddDescriptorsImplEv@Base 3.13.6
 _ZN38protobuf_FeatureAffinityConfig_2eproto19file_level_metadataE@Base 3.13.6
 _ZN38protobuf_FeatureAffinityConfig_2eproto22protobuf_RegisterTypesERKNSt7__cxx1112basic_stringIcSt11char_traitsIcESaIcEEE@Base 3.13.6
 _ZN38protobuf_FeatureAffinityConfig_2eproto26protobuf_AssignDescriptorsEv@Base 3.13.6
 _ZN38protobuf_FeatureAffinityConfig_2eproto27file_level_enum_descriptorsE@Base 3.13.6
 _ZN38protobuf_FeatureAffinityConfig_2eproto29static_descriptor_initializerE@Base 3.13.6
 _ZN38protobuf_FeatureAffinityConfig_2eproto30protobuf_AssignDescriptorsOnceEv@Base 3.13.6
 _ZN38protobuf_FeatureAffinityConfig_2eproto30scc_info_FeatureAffinityConfigE@Base 3.13.6
 _ZN4Path10SharedCtorEv@Base 3.13.6
 _ZN4Path10SharedDtorEv@Base 3.13.6
 _ZN4Path10descriptorEv@Base 3.13.6
 _ZN4Path11UNREACHABLEE@Base 3.13.6
 _ZN4Path12InternalSwapEPS_@Base 3.13.6
 _ZN4Path12PathType_MAXE@Base 3.13.6
 _ZN4Path12PathType_MINE@Base 3.13.6
 _ZN4Path13clear_nexthopEv@Base 3.13.6
 _ZN4Path16default_instanceEv@Base 3.13.6
 _ZN4Path16kTypeFieldNumberE@Base 3.13.6
 _ZN4Path18PathType_ARRAYSIZEE@Base 3.13.6
 _ZN4Path18kBackupFieldNumberE@Base 3.13.6
 _ZN4Path19kIfindexFieldNumberE@Base 3.13.6
 _ZN4Path19kNexthopFieldNumberE@Base 3.13.6
 _ZN4Path21InitAsDefaultInstanceEv@Base 3.13.6
 _ZN4Path22clear_preferred_sourceEv@Base 3.13.6
 _ZN4Path22kMplsLabelsFieldNumberE@Base 3.13.6
 _ZN4Path23kMplsBosOnlyFieldNumberE@Base 3.13.6
 _ZN4Path24kViaMplsLabelFieldNumberE@Base 3.13.6
 _ZN4Path27MergePartialFromCodedStreamEPN6google8protobuf2io16CodedInputStreamE@Base 3.13.6
 _ZN4Path27kPreferredSourceFieldNumberE@Base 3.13.6
 _ZN4Path31kNNonRecursiveLabelsFieldNumberE@Base 3.13.6
 _ZN4Path4SwapEPS_@Base 3.13.6
 _ZN4Path5ClearEv@Base 3.13.6
 _ZN4Path5LOCALE@Base 3.13.6
 _ZN4Path7UNICASTE@Base 3.13.6
 _ZN4Path8CopyFromERKN6google8protobuf7MessageE@Base 3.13.6
 _ZN4Path8CopyFromERKS_@Base 3.13.6
 _ZN4Path9BLACKHOLEE@Base 3.13.6
 _ZN4Path9MergeFromERKN6google8protobuf7MessageE@Base 3.13.6
 _ZN4Path9MergeFromERKS_@Base 3.13.6
 _ZN4PathC1ERKS_@Base 3.13.6
 _ZN4PathC1Ev@Base 3.13.6
 _ZN4PathC2ERKS_@Base 3.13.6
 _ZN4PathC2Ev@Base 3.13.6
 _ZN4PathD0Ev@Base 3.13.6
 _ZN4PathD1Ev@Base 3.13.6
 _ZN4PathD2Ev@Base 3.13.6
 _ZN4Rule10SharedCtorEv@Base 3.13.6
 _ZN4Rule10SharedDtorEv@Base 3.13.6
 _ZN4Rule10descriptorEv@Base 3.13.6
 _ZN4Rule12InternalSwapEPS_@Base 3.13.6
 _ZN4Rule16default_instanceEv@Base 3.13.6
 _ZN4Rule18kNumberFieldNumberE@Base 3.13.6
 _ZN4Rule18kResultFieldNumberE@Base 3.13.6
 _ZN4Rule19kActionsFieldNumberE@Base 3.13.6
 _ZN4Rule19kCounterFieldNumberE@Base 3.13.6
 _ZN4Rule19kMatchesFieldNumberE@Base 3.13.6
 _ZN4Rule21InitAsDefaultInstanceEv@Base 3.13.6
 _ZN4Rule22kOrigNumberFieldNumberE@Base 3.13.6
 _ZN4Rule22kTableIndexFieldNumberE@Base 3.13.6
 _ZN4Rule27MergePartialFromCodedStreamEPN6google8protobuf2io16CodedInputStreamE@Base 3.13.6
 _ZN4Rule4SwapEPS_@Base 3.13.6
 _ZN4Rule5ClearEv@Base 3.13.6
 _ZN4Rule8CopyFromERKN6google8protobuf7MessageE@Base 3.13.6
 _ZN4Rule8CopyFromERKS_@Base 3.13.6
 _ZN4Rule9MergeFromERKN6google8protobuf7MessageE@Base 3.13.6
 _ZN4Rule9MergeFromERKS_@Base 3.13.6
 _ZN4RuleC1ERKS_@Base 3.13.6
 _ZN4RuleC1Ev@Base 3.13.6
 _ZN4RuleC2ERKS_@Base 3.13.6
 _ZN4RuleC2Ev@Base 3.13.6
 _ZN4RuleD0Ev@Base 3.13.6
 _ZN4RuleD1Ev@Base 3.13.6
 _ZN4RuleD2Ev@Base 3.13.6
 _ZN5Route10SharedCtorEv@Base 3.13.6
 _ZN5Route10SharedDtorEv@Base 3.13.6
 _ZN5Route10descriptorEv@Base 3.13.6
 _ZN5Route12InternalSwapEPS_@Base 3.13.6
 _ZN5Route12clear_prefixEv@Base 3.13.6
 _ZN5Route15PayloadType_MAXE@Base 3.13.6
 _ZN5Route15PayloadType_MINE@Base 3.13.6
 _ZN5Route16default_instanceEv@Base 3.13.6
 _ZN5Route17kPathsFieldNumberE@Base 3.13.6
 _ZN5Route17kScopeFieldNumberE@Base 3.13.6
 _ZN5Route18kPrefixFieldNumberE@Base 3.13.6
 _ZN5Route19kTableIdFieldNumberE@Base 3.13.6
 _ZN5Route21InitAsDefaultInstanceEv@Base 3.13.6
 _ZN5Route21PayloadType_ARRAYSIZEE@Base 3.13.6
 _ZN5Route23kPayloadTypeFieldNumberE@Base 3.13.6
 _ZN5Route24kPrefixLengthFieldNumberE@Base 3.13.6
 _ZN5Route27MergePartialFromCodedStreamEPN6google8protobuf2io16CodedInputStreamE@Base 3.13.6
 _ZN5Route27kRoutingProtocolFieldNumberE@Base 3.13.6
 _ZN5Route4IPV4E@Base 3.13.6
 _ZN5Route4IPV6E@Base 3.13.6
 _ZN5Route4SwapEPS_@Base 3.13.6
 _ZN5Route5ClearEv@Base 3.13.6
 _ZN5Route6UNSPECE@Base 3.13.6
 _ZN5Route8CopyFromERKN6google8protobuf7MessageE@Base 3.13.6
 _ZN5Route8CopyFromERKS_@Base 3.13.6
 _ZN5Route9MergeFromERKN6google8protobuf7MessageE@Base 3.13.6
 _ZN5Route9MergeFromERKS_@Base 3.13.6
 _ZN5RouteC1ERKS_@Base 3.13.6
 _ZN5RouteC1Ev@Base 3.13.6
 _ZN5RouteC2ERKS_@Base 3.13.6
 _ZN5RouteC2Ev@Base 3.13.6
 _ZN5RouteD0Ev@Base 3.13.6
 _ZN5RouteD1Ev@Base 3.13.6
 _ZN5RouteD2Ev@Base 3.13.6
 _ZN5Rules10SharedCtorEv@Base 3.13.6
 _ZN5Rules10SharedDtorEv@Base 3.13.6
 _ZN5Rules10descriptorEv@Base 3.13.6
 _ZN5Rules12InternalSwapEPS_@Base 3.13.6
 _ZN5Rules16default_instanceEv@Base 3.13.6
 _ZN5Rules17kRulesFieldNumberE@Base 3.13.6
 _ZN5Rules21InitAsDefaultInstanceEv@Base 3.13.6
 _ZN5Rules23kTrafficTypeFieldNumberE@Base 3.13.6
 _ZN5Rules27MergePartialFromCodedStreamEPN6google8protobuf2io16CodedInputStreamE@Base 3.13.6
 _ZN5Rules4SwapEPS_@Base 3.13.6
 _ZN5Rules5ClearEv@Base 3.13.6
 _ZN5Rules8CopyFromERKN6google8protobuf7MessageE@Base 3.13.6
 _ZN5Rules8CopyFromERKS_@Base 3.13.6
 _ZN5Rules9MergeFromERKN6google8protobuf7MessageE@Base 3.13.6
 _ZN5Rules9MergeFromERKS_@Base 3.13.6
 _ZN5RulesC1ERKS_@Base 3.13.6
 _ZN5RulesC1Ev@Base 3.13.6
 _ZN5RulesC2ERKS_@Base 3.13.6
 _ZN5RulesC2Ev@Base 3.13.6
 _ZN5RulesD0Ev@Base 3.13.6
 _ZN5RulesD1Ev@Base 3.13.6
 _ZN5RulesD2Ev@Base 3.13.6
 _ZN6cpp_rl11CPP_limiter10SharedCtorEv@Base 3.13.6
 _ZN6cpp_rl11CPP_limiter10SharedDtorEv@Base 3.13.6
 _ZN6cpp_rl11CPP_limiter10descriptorEv@Base 3.13.6
 _ZN6cpp_rl11CPP_limiter12InternalSwapEPS0_@Base 3.13.6
 _ZN6cpp_rl11CPP_limiter16default_instanceEv@Base 3.13.6
 _ZN6cpp_rl11CPP_limiter21InitAsDefaultInstanceEv@Base 3.13.6
 _ZN6cpp_rl11CPP_limiter22kAttributesFieldNumberE@Base 3.13.6
 _ZN6cpp_rl11CPP_limiter27MergePartialFromCodedStreamEPN6google8protobuf2io16CodedInputStreamE@Base 3.13.6
 _ZN6cpp_rl11CPP_limiter29kDetectionIntervalFieldNumberE@Base 3.13.6
 _ZN6cpp_rl11CPP_limiter4SwapEPS0_@Base 3.13.6
 _ZN6cpp_rl11CPP_limiter5ClearEv@Base 3.13.6
 _ZN6cpp_rl11CPP_limiter8CopyFromERKN6google8protobuf7MessageE@Base 3.13.6
 _ZN6cpp_rl11CPP_limiter8CopyFromERKS0_@Base 3.13.6
 _ZN6cpp_rl11CPP_limiter9MergeFromERKN6google8protobuf7MessageE@Base 3.13.6
 _ZN6cpp_rl11CPP_limiter9MergeFromERKS0_@Base 3.13.6
 _ZN6cpp_rl11CPP_limiterC1ERKS0_@Base 3.13.6
 _ZN6cpp_rl11CPP_limiterC1Ev@Base 3.13.6
 _ZN6cpp_rl11CPP_limiterC2ERKS0_@Base 3.13.6
 _ZN6cpp_rl11CPP_limiterC2Ev@Base 3.13.6
 _ZN6cpp_rl11CPP_limiterD0Ev@Base 3.13.6
 _ZN6cpp_rl11CPP_limiterD1Ev@Base 3.13.6
 _ZN6cpp_rl11CPP_limiterD2Ev@Base 3.13.6
 _ZN6cpp_rl25CPP_limiter_CPP_attribute10SharedCtorEv@Base 3.13.6
 _ZN6cpp_rl25CPP_limiter_CPP_attribute10SharedDtorEv@Base 3.13.6
 _ZN6cpp_rl25CPP_limiter_CPP_attribute10descriptorEv@Base 3.13.6
 _ZN6cpp_rl25CPP_limiter_CPP_attribute12CPP_ATTR_BGPE@Base 3.13.6
 _ZN6cpp_rl25CPP_limiter_CPP_attribute12CPP_ATTR_PIME@Base 3.13.6
 _ZN6cpp_rl25CPP_limiter_CPP_attribute12CPP_ATTR_TCPE@Base 3.13.6
 _ZN6cpp_rl25CPP_limiter_CPP_attribute12CPP_ATTR_UDPE@Base 3.13.6
 _ZN6cpp_rl25CPP_limiter_CPP_attribute12InternalSwapEPS0_@Base 3.13.6
 _ZN6cpp_rl25CPP_limiter_CPP_attribute13CPP_ATTR_ICMPE@Base 3.13.6
 _ZN6cpp_rl25CPP_limiter_CPP_attribute13CPP_ATTR_OSPFE@Base 3.13.6
 _ZN6cpp_rl25CPP_limiter_CPP_attribute13CPP_ATTR_RSVPE@Base 3.13.6
 _ZN6cpp_rl25CPP_limiter_CPP_attribute15cpp_attr_en_MAXE@Base 3.13.6
 _ZN6cpp_rl25CPP_limiter_CPP_attribute15cpp_attr_en_MINE@Base 3.13.6
 _ZN6cpp_rl25CPP_limiter_CPP_attribute16CPP_ATTR_BFD_UDPE@Base 3.13.6
 _ZN6cpp_rl25CPP_limiter_CPP_attribute16CPP_ATTR_DEFAULTE@Base 3.13.6
 _ZN6cpp_rl25CPP_limiter_CPP_attribute16CPP_ATTR_LDP_UDPE@Base 3.13.6
 _ZN6cpp_rl25CPP_limiter_CPP_attribute16CPP_ATTR_UNKNOWNE@Base 3.13.6
 _ZN6cpp_rl25CPP_limiter_CPP_attribute16default_instanceEv@Base 3.13.6
 _ZN6cpp_rl25CPP_limiter_CPP_attribute16kAttrFieldNumberE@Base 3.13.6
 _ZN6cpp_rl25CPP_limiter_CPP_attribute17CPP_ATTR_IPV6_EXTE@Base 3.13.6
 _ZN6cpp_rl25CPP_limiter_CPP_attribute21CPP_ATTR_IP_MULTICASTE@Base 3.13.6
 _ZN6cpp_rl25CPP_limiter_CPP_attribute21CPP_ATTR_LL_MULTICASTE@Base 3.13.6
 _ZN6cpp_rl25CPP_limiter_CPP_attribute21InitAsDefaultInstanceEv@Base 3.13.6
 _ZN6cpp_rl25CPP_limiter_CPP_attribute21cpp_attr_en_ARRAYSIZEE@Base 3.13.6
 _ZN6cpp_rl25CPP_limiter_CPP_attribute22CPP_ATTR_IPV4_FRAGMENTE@Base 3.13.6
 _ZN6cpp_rl25CPP_limiter_CPP_attribute22kParametersFieldNumberE@Base 3.13.6
 _ZN6cpp_rl25CPP_limiter_CPP_attribute23CPP_ATTR_OSPF_MULTICASTE@Base 3.13.6
 _ZN6cpp_rl25CPP_limiter_CPP_attribute27MergePartialFromCodedStreamEPN6google8protobuf2io16CodedInputStreamE@Base 3.13.6
 _ZN6cpp_rl25CPP_limiter_CPP_attribute4SwapEPS0_@Base 3.13.6
 _ZN6cpp_rl25CPP_limiter_CPP_attribute5ClearEv@Base 3.13.6
 _ZN6cpp_rl25CPP_limiter_CPP_attribute8CopyFromERKN6google8protobuf7MessageE@Base 3.13.6
 _ZN6cpp_rl25CPP_limiter_CPP_attribute8CopyFromERKS0_@Base 3.13.6
 _ZN6cpp_rl25CPP_limiter_CPP_attribute9MergeFromERKN6google8protobuf7MessageE@Base 3.13.6
 _ZN6cpp_rl25CPP_limiter_CPP_attribute9MergeFromERKS0_@Base 3.13.6
 _ZN6cpp_rl25CPP_limiter_CPP_attributeC1ERKS0_@Base 3.13.6
 _ZN6cpp_rl25CPP_limiter_CPP_attributeC1Ev@Base 3.13.6
 _ZN6cpp_rl25CPP_limiter_CPP_attributeC2ERKS0_@Base 3.13.6
 _ZN6cpp_rl25CPP_limiter_CPP_attributeC2Ev@Base 3.13.6
 _ZN6cpp_rl25CPP_limiter_CPP_attributeD0Ev@Base 3.13.6
 _ZN6cpp_rl25CPP_limiter_CPP_attributeD1Ev@Base 3.13.6
 _ZN6cpp_rl25CPP_limiter_CPP_attributeD2Ev@Base 3.13.6
 _ZN6cpp_rl30_CPP_limiter_default_instance_E@Base 3.13.6
 _ZN6cpp_rl39CPP_limiter_CPP_attribute_CPP_parameter10SharedCtorEv@Base 3.13.6
 _ZN6cpp_rl39CPP_limiter_CPP_attribute_CPP_parameter10SharedDtorEv@Base 3.13.6
 _ZN6cpp_rl39CPP_limiter_CPP_attribute_CPP_parameter10descriptorEv@Base 3.13.6
 _ZN6cpp_rl39CPP_limiter_CPP_attribute_CPP_parameter12InternalSwapEPS0_@Base 3.13.6
 _ZN6cpp_rl39CPP_limiter_CPP_attribute_CPP_parameter16default_instanceEv@Base 3.13.6
 _ZN6cpp_rl39CPP_limiter_CPP_attribute_CPP_parameter19kRatePpsFieldNumberE@Base 3.13.6
 _ZN6cpp_rl39CPP_limiter_CPP_attribute_CPP_parameter20kRateKbpsFieldNumberE@Base 3.13.6
 _ZN6cpp_rl39CPP_limiter_CPP_attribute_CPP_parameter21InitAsDefaultInstanceEv@Base 3.13.6
 _ZN6cpp_rl39CPP_limiter_CPP_attribute_CPP_parameter27MergePartialFromCodedStreamEPN6google8protobuf2io16CodedInputStreamE@Base 3.13.6
 _ZN6cpp_rl39CPP_limiter_CPP_attribute_CPP_parameter4SwapEPS0_@Base 3.13.6
 _ZN6cpp_rl39CPP_limiter_CPP_attribute_CPP_parameter5ClearEv@Base 3.13.6
 _ZN6cpp_rl39CPP_limiter_CPP_attribute_CPP_parameter8CopyFromERKN6google8protobuf7MessageE@Base 3.13.6
 _ZN6cpp_rl39CPP_limiter_CPP_attribute_CPP_parameter8CopyFromERKS0_@Base 3.13.6
 _ZN6cpp_rl39CPP_limiter_CPP_attribute_CPP_parameter9MergeFromERKN6google8protobuf7MessageE@Base 3.13.6
 _ZN6cpp_rl39CPP_limiter_CPP_attribute_CPP_parameter9MergeFromERKS0_@Base 3.13.6
 _ZN6cpp_rl39CPP_limiter_CPP_attribute_CPP_parameterC1ERKS0_@Base 3.13.6
 _ZN6cpp_rl39CPP_limiter_CPP_attribute_CPP_parameterC1Ev@Base 3.13.6
 _ZN6cpp_rl39CPP_limiter_CPP_attribute_CPP_parameterC2ERKS0_@Base 3.13.6
 _ZN6cpp_rl39CPP_limiter_CPP_attribute_CPP_parameterC2Ev@Base 3.13.6
 _ZN6cpp_rl39CPP_limiter_CPP_attribute_CPP_parameterD0Ev@Base 3.13.6
 _ZN6cpp_rl39CPP_limiter_CPP_attribute_CPP_parameterD1Ev@Base 3.13.6
 _ZN6cpp_rl39CPP_limiter_CPP_attribute_CPP_parameterD2Ev@Base 3.13.6
 _ZN6cpp_rl44_CPP_limiter_CPP_attribute_default_instance_E@Base 3.13.6
 _ZN6cpp_rl45CPP_limiter_CPP_attribute_cpp_attr_en_IsValidEi@Base 3.13.6
 _ZN6cpp_rl48CPP_limiter_CPP_attribute_cpp_attr_en_descriptorEv@Base 3.13.6
 _ZN6cpp_rl58_CPP_limiter_CPP_attribute_CPP_parameter_default_instance_E@Base 3.13.6
 _ZN6google8protobuf5Arena18CreateMaybeMessageI10GArpConfigJEEEPT_PS1_DpOT0_@Base 3.13.6
 _ZN6google8protobuf5Arena18CreateMaybeMessageI10GPCCounterJEEEPT_PS1_DpOT0_@Base 3.13.6
 _ZN6google8protobuf5Arena18CreateMaybeMessageI10RuleActionJEEEPT_PS1_DpOT0_@Base 3.13.6
 _ZN6google8protobuf5Arena18CreateMaybeMessageI10SessionLogJEEEPT_PS1_DpOT0_@Base 3.13.6
 _ZN6google8protobuf5Arena18CreateMaybeMessageI11PPPOEConfigJEEEPT_PS1_DpOT0_@Base 3.13.6
 _ZN6google8protobuf5Arena18CreateMaybeMessageI11PauseConfigJEEEPT_PS1_DpOT0_@Base 3.13.6
 _ZN6google8protobuf5Arena18CreateMaybeMessageI11RuleCounterJEEEPT_PS1_DpOT0_@Base 3.13.6
 _ZN6google8protobuf5Arena18CreateMaybeMessageI11SpeedConfigJEEEPT_PS1_DpOT0_@Base 3.13.6
 _ZN6google8protobuf5Arena18CreateMaybeMessageI11SynceConfigJEEEPT_PS1_DpOT0_@Base 3.13.6
 _ZN6google8protobuf5Arena18CreateMaybeMessageI12DPSessionMsgJEEEPT_PS1_DpOT0_@Base 3.13.34
 _ZN6google8protobuf5Arena18CreateMaybeMessageI12NbrResConfigJEEEPT_PS1_DpOT0_@Base 3.13.6
 _ZN6google8protobuf5Arena18CreateMaybeMessageI12TCPMSSConfigJEEEPT_PS1_DpOT0_@Base 3.13.6
 _ZN6google8protobuf5Arena18CreateMaybeMessageI12TCPWindowMsgJEEEPT_PS1_DpOT0_@Base 3.13.34
 _ZN6google8protobuf5Arena18CreateMaybeMessageI12VFPSetConfigJEEEPT_PS1_DpOT0_@Base 3.13.6
 _ZN6google8protobuf5Arena18CreateMaybeMessageI13ConstraintLogJEEEPT_PS1_DpOT0_@Base 3.13.6
 _ZN6google8protobuf5Arena18CreateMaybeMessageI13NPFSessionMsgJEEEPT_PS1_DpOT0_@Base 3.13.34
 _ZN6google8protobuf5Arena18CreateMaybeMessageI13PolicerParamsJEEEPT_PS1_DpOT0_@Base 3.13.6
 _ZN6google8protobuf5Arena18CreateMaybeMessageI13SubscriberLogJEEEPT_PS1_DpOT0_@Base 3.13.6
 _ZN6google8protobuf5Arena18CreateMaybeMessageI14BreakoutConfigJEEEPT_PS1_DpOT0_@Base 3.13.6
 _ZN6google8protobuf5Arena18CreateMaybeMessageI14MacLimitConfigJEEEPT_PS1_DpOT0_@Base 3.13.6
 _ZN6google8protobuf5Arena18CreateMaybeMessageI14XConnectConfigJEEEPT_PS1_DpOT0_@Base 3.13.6
 _ZN6google8protobuf5Arena18CreateMaybeMessageI15DPSessionKeyMsgJEEEPT_PS1_DpOT0_@Base 3.13.34
 _ZN6google8protobuf5Arena18CreateMaybeMessageI15SfpPermitConfigJEEEPT_PS1_DpOT0_@Base 3.13.34
 _ZN6google8protobuf5Arena18CreateMaybeMessageI15TWAMPInitialiseJEEEPT_PS1_DpOT0_@Base 3.13.34
 _ZN6google8protobuf5Arena18CreateMaybeMessageI15TWAMPSessionKeyJEEEPT_PS1_DpOT0_@Base 3.13.34
 _ZN6google8protobuf5Arena18CreateMaybeMessageI16IPAddressOrLabelJEEEPT_PS1_DpOT0_@Base 3.13.6
 _ZN6google8protobuf5Arena18CreateMaybeMessageI16TWAMPCmdResponseJEEEPT_PS1_DpOT0_@Base 3.13.34
 _ZN6google8protobuf5Arena18CreateMaybeMessageI17DPSessionStateMsgJEEEPT_PS1_DpOT0_@Base 3.13.34
 _ZN6google8protobuf5Arena18CreateMaybeMessageI17DataplaneEnvelopeJEEEPT_PS1_DpOT0_@Base 3.13.6
 _ZN6google8protobuf5Arena18CreateMaybeMessageI17ICMPRateLimConfigJEEEPT_PS1_DpOT0_@Base 3.13.34
 _ZN6google8protobuf5Arena18CreateMaybeMessageI17PortAllocationLogJEEEPT_PS1_DpOT0_@Base 3.13.6
 _ZN6google8protobuf5Arena18CreateMaybeMessageI18CryptoPolicyConfigJEEEPT_PS1_DpOT0_@Base 3.13.6
 _ZN6google8protobuf5Arena18CreateMaybeMessageI18IP6RedirectsConfigJEEEPT_PS1_DpOT0_@Base 3.13.6
 _ZN6google8protobuf5Arena18CreateMaybeMessageI18NPFSessionStateMsgJEEEPT_PS1_DpOT0_@Base 3.13.34
 _ZN6google8protobuf5Arena18CreateMaybeMessageI18PackedDPSessionMsgJEEEPT_PS1_DpOT0_@Base 3.13.34
 _ZN6google8protobuf5Arena18CreateMaybeMessageI18TWAMPSessionCreateJEEEPT_PS1_DpOT0_@Base 3.13.34
 _ZN6google8protobuf5Arena18CreateMaybeMessageI18TWAMPSessionDeleteJEEEPT_PS1_DpOT0_@Base 3.13.34
 _ZN6google8protobuf5Arena18CreateMaybeMessageI19DPSessionCounterMsgJEEEPT_PS1_DpOT0_@Base 3.13.34
 _ZN6google8protobuf5Arena18CreateMaybeMessageI19LAGConfig_LagCreateJEEEPT_PS1_DpOT0_@Base 3.13.6
 _ZN6google8protobuf5Arena18CreateMaybeMessageI19LAGConfig_LagDeleteJEEEPT_PS1_DpOT0_@Base 3.13.6
 _ZN6google8protobuf5Arena18CreateMaybeMessageI19PipelineStatsConfigJEEEPT_PS1_DpOT0_@Base 3.13.6
 _ZN6google8protobuf5Arena18CreateMaybeMessageI19SfpPermitConfig_SFPJEEEPT_PS1_DpOT0_@Base 3.13.34
 _ZN6google8protobuf5Arena18CreateMaybeMessageI20TWAMPSessionCountersJEEEPT_PS1_DpOT0_@Base 3.13.34
 _ZN6google8protobuf5Arena18CreateMaybeMessageI21FeatureAffinityConfigJEEEPT_PS1_DpOT0_@Base 3.13.6
 _ZN6google8protobuf5Arena18CreateMaybeMessageI25PauseConfig_PauseIfConfigJEEEPT_PS1_DpOT0_@Base 3.13.6
 _ZN6google8protobuf5Arena18CreateMaybeMessageI25RuleMatch_ICMPTypeAndCodeJEEEPT_PS1_DpOT0_@Base 3.13.6
 _ZN6google8protobuf5Arena18CreateMaybeMessageI26SfpPermitConfig_ListConfigJEEEPT_PS1_DpOT0_@Base 3.13.34
 _ZN6google8protobuf5Arena18CreateMaybeMessageI27TWAMPSessionCounterResponseJEEEPT_PS1_DpOT0_@Base 3.13.34
 _ZN6google8protobuf5Arena18CreateMaybeMessageI30SfpPermitConfig_MisMatchConfigJEEEPT_PS1_DpOT0_@Base 3.13.34
 _ZN6google8protobuf5Arena18CreateMaybeMessageI31BreakoutConfig_BreakoutIfConfigJEEEPT_PS1_DpOT0_@Base 3.13.6
 _ZN6google8protobuf5Arena18CreateMaybeMessageI31LAGConfig_LagCreate_LacpOptionsJEEEPT_PS1_DpOT0_@Base 3.13.6
 _ZN6google8protobuf5Arena18CreateMaybeMessageI35MacLimitConfig_MacLimitIfVLANConfigJEEEPT_PS1_DpOT0_@Base 3.13.6
 _ZN6google8protobuf5Arena18CreateMaybeMessageI36MacLimitConfig_MacLimitProfileConfigJEEEPT_PS1_DpOT0_@Base 3.13.6
 _ZN6google8protobuf5Arena18CreateMaybeMessageI4PathJEEEPT_PS1_DpOT0_@Base 3.13.6
 _ZN6google8protobuf5Arena18CreateMaybeMessageI4RuleJEEEPT_PS1_DpOT0_@Base 3.13.6
 _ZN6google8protobuf5Arena18CreateMaybeMessageI5RouteJEEEPT_PS1_DpOT0_@Base 3.13.6
 _ZN6google8protobuf5Arena18CreateMaybeMessageI5RulesJEEEPT_PS1_DpOT0_@Base 3.13.6
 _ZN6google8protobuf5Arena18CreateMaybeMessageI8CgnatLogJEEEPT_PS1_DpOT0_@Base 3.13.6
 _ZN6google8protobuf5Arena18CreateMaybeMessageI8GPCTableJEEEPT_PS1_DpOT0_@Base 3.13.6
 _ZN6google8protobuf5Arena18CreateMaybeMessageI8IPPrefixJEEEPT_PS1_DpOT0_@Base 3.13.6
 _ZN6google8protobuf5Arena18CreateMaybeMessageI8TWAMPCmdJEEEPT_PS1_DpOT0_@Base 3.13.34
 _ZN6google8protobuf5Arena18CreateMaybeMessageI9GPCConfigJEEEPT_PS1_DpOT0_@Base 3.13.6
 _ZN6google8protobuf5Arena18CreateMaybeMessageI9IPAddressJEEEPT_PS1_DpOT0_@Base 3.13.6
 _ZN6google8protobuf5Arena18CreateMaybeMessageI9LAGConfigJEEEPT_PS1_DpOT0_@Base 3.13.6
 _ZN6google8protobuf5Arena18CreateMaybeMessageI9RibUpdateJEEEPT_PS1_DpOT0_@Base 3.13.6
 _ZN6google8protobuf5Arena18CreateMaybeMessageI9RuleMatchJEEEPT_PS1_DpOT0_@Base 3.13.6
 _ZN6google8protobuf5Arena18CreateMaybeMessageI9TimestampJEEEPT_PS1_DpOT0_@Base 3.13.6
 _ZN6google8protobuf5Arena18CreateMaybeMessageIN6cpp_rl11CPP_limiterEJEEEPT_PS1_DpOT0_@Base 3.13.6
 _ZN6google8protobuf5Arena18CreateMaybeMessageIN6cpp_rl25CPP_limiter_CPP_attributeEJEEEPT_PS1_DpOT0_@Base 3.13.6
 _ZN6google8protobuf5Arena18CreateMaybeMessageIN6cpp_rl39CPP_limiter_CPP_attribute_CPP_parameterEJEEEPT_PS1_DpOT0_@Base 3.13.6
 _ZN6google8protobuf8internal20RepeatedPtrFieldBase18MergeFromInnerLoopINS0_16RepeatedPtrFieldI10GPCCounterE11TypeHandlerEEEvPPvS9_ii@Base 3.13.6
 _ZN6google8protobuf8internal20RepeatedPtrFieldBase18MergeFromInnerLoopINS0_16RepeatedPtrFieldI10RuleActionE11TypeHandlerEEEvPPvS9_ii@Base 3.13.6
 _ZN6google8protobuf8internal20RepeatedPtrFieldBase18MergeFromInnerLoopINS0_16RepeatedPtrFieldI12DPSessionMsgE11TypeHandlerEEEvPPvS9_ii@Base 3.13.34
 _ZN6google8protobuf8internal20RepeatedPtrFieldBase18MergeFromInnerLoopINS0_16RepeatedPtrFieldI12TCPWindowMsgE11TypeHandlerEEEvPPvS9_ii@Base 3.13.34
 _ZN6google8protobuf8internal20RepeatedPtrFieldBase18MergeFromInnerLoopINS0_16RepeatedPtrFieldI19SfpPermitConfig_SFPE11TypeHandlerEEEvPPvS9_ii@Base 3.13.34
 _ZN6google8protobuf8internal20RepeatedPtrFieldBase18MergeFromInnerLoopINS0_16RepeatedPtrFieldI4PathE11TypeHandlerEEEvPPvS9_ii@Base 3.13.6
 _ZN6google8protobuf8internal20RepeatedPtrFieldBase18MergeFromInnerLoopINS0_16RepeatedPtrFieldI4RuleE11TypeHandlerEEEvPPvS9_ii@Base 3.13.6
 _ZN6google8protobuf8internal20RepeatedPtrFieldBase18MergeFromInnerLoopINS0_16RepeatedPtrFieldI8GPCTableE11TypeHandlerEEEvPPvS9_ii@Base 3.13.6
 _ZN6google8protobuf8internal20RepeatedPtrFieldBase18MergeFromInnerLoopINS0_16RepeatedPtrFieldI9RuleMatchE11TypeHandlerEEEvPPvS9_ii@Base 3.13.6
 _ZN6google8protobuf8internal20RepeatedPtrFieldBase18MergeFromInnerLoopINS0_16RepeatedPtrFieldIN6cpp_rl25CPP_limiter_CPP_attributeEE11TypeHandlerEEEvPPvSA_ii@Base 3.13.6
 _ZN6google8protobuf8internal20RepeatedPtrFieldBase18MergeFromInnerLoopINS0_16RepeatedPtrFieldIN6cpp_rl39CPP_limiter_CPP_attribute_CPP_parameterEE11TypeHandlerEEEvPPvSA_ii@Base 3.13.6
 _ZN6google8protobuf8internal20RepeatedPtrFieldBase18MergeFromInnerLoopINS0_16RepeatedPtrFieldINSt7__cxx1112basic_stringIcSt11char_traitsIcESaIcEEEE11TypeHandlerEEEvPPvSE_ii@Base 3.13.6
 _ZN6google8protobuf8internal21arena_destruct_objectI10GArpConfigEEvPv@Base 3.13.6
 _ZN6google8protobuf8internal21arena_destruct_objectI10GPCCounterEEvPv@Base 3.13.6
 _ZN6google8protobuf8internal21arena_destruct_objectI10RuleActionEEvPv@Base 3.13.6
 _ZN6google8protobuf8internal21arena_destruct_objectI10SessionLogEEvPv@Base 3.13.6
 _ZN6google8protobuf8internal21arena_destruct_objectI11PPPOEConfigEEvPv@Base 3.13.6
 _ZN6google8protobuf8internal21arena_destruct_objectI11PauseConfigEEvPv@Base 3.13.6
 _ZN6google8protobuf8internal21arena_destruct_objectI11RuleCounterEEvPv@Base 3.13.6
 _ZN6google8protobuf8internal21arena_destruct_objectI11SpeedConfigEEvPv@Base 3.13.6
 _ZN6google8protobuf8internal21arena_destruct_objectI11SynceConfigEEvPv@Base 3.13.6
 _ZN6google8protobuf8internal21arena_destruct_objectI12DPSessionMsgEEvPv@Base 3.13.34
 _ZN6google8protobuf8internal21arena_destruct_objectI12NbrResConfigEEvPv@Base 3.13.6
 _ZN6google8protobuf8internal21arena_destruct_objectI12TCPMSSConfigEEvPv@Base 3.13.6
 _ZN6google8protobuf8internal21arena_destruct_objectI12TCPWindowMsgEEvPv@Base 3.13.34
 _ZN6google8protobuf8internal21arena_destruct_objectI12VFPSetConfigEEvPv@Base 3.13.6
 _ZN6google8protobuf8internal21arena_destruct_objectI13ConstraintLogEEvPv@Base 3.13.6
 _ZN6google8protobuf8internal21arena_destruct_objectI13NPFSessionMsgEEvPv@Base 3.13.34
 _ZN6google8protobuf8internal21arena_destruct_objectI13PolicerParamsEEvPv@Base 3.13.6
 _ZN6google8protobuf8internal21arena_destruct_objectI13SubscriberLogEEvPv@Base 3.13.6
 _ZN6google8protobuf8internal21arena_destruct_objectI14BreakoutConfigEEvPv@Base 3.13.6
 _ZN6google8protobuf8internal21arena_destruct_objectI14MacLimitConfigEEvPv@Base 3.13.6
 _ZN6google8protobuf8internal21arena_destruct_objectI14XConnectConfigEEvPv@Base 3.13.6
 _ZN6google8protobuf8internal21arena_destruct_objectI15DPSessionKeyMsgEEvPv@Base 3.13.34
 _ZN6google8protobuf8internal21arena_destruct_objectI15SfpPermitConfigEEvPv@Base 3.13.34
 _ZN6google8protobuf8internal21arena_destruct_objectI15TWAMPInitialiseEEvPv@Base 3.13.34
 _ZN6google8protobuf8internal21arena_destruct_objectI15TWAMPSessionKeyEEvPv@Base 3.13.34
 _ZN6google8protobuf8internal21arena_destruct_objectI16IPAddressOrLabelEEvPv@Base 3.13.6
 _ZN6google8protobuf8internal21arena_destruct_objectI16TWAMPCmdResponseEEvPv@Base 3.13.34
 _ZN6google8protobuf8internal21arena_destruct_objectI17DPSessionStateMsgEEvPv@Base 3.13.34
 _ZN6google8protobuf8internal21arena_destruct_objectI17DataplaneEnvelopeEEvPv@Base 3.13.6
 _ZN6google8protobuf8internal21arena_destruct_objectI17ICMPRateLimConfigEEvPv@Base 3.13.34
 _ZN6google8protobuf8internal21arena_destruct_objectI17PortAllocationLogEEvPv@Base 3.13.6
 _ZN6google8protobuf8internal21arena_destruct_objectI18CryptoPolicyConfigEEvPv@Base 3.13.6
 _ZN6google8protobuf8internal21arena_destruct_objectI18IP6RedirectsConfigEEvPv@Base 3.13.6
 _ZN6google8protobuf8internal21arena_destruct_objectI18NPFSessionStateMsgEEvPv@Base 3.13.34
 _ZN6google8protobuf8internal21arena_destruct_objectI18PackedDPSessionMsgEEvPv@Base 3.13.34
 _ZN6google8protobuf8internal21arena_destruct_objectI18TWAMPSessionCreateEEvPv@Base 3.13.34
 _ZN6google8protobuf8internal21arena_destruct_objectI18TWAMPSessionDeleteEEvPv@Base 3.13.34
 _ZN6google8protobuf8internal21arena_destruct_objectI19DPSessionCounterMsgEEvPv@Base 3.13.34
 _ZN6google8protobuf8internal21arena_destruct_objectI19LAGConfig_LagCreateEEvPv@Base 3.13.6
 _ZN6google8protobuf8internal21arena_destruct_objectI19LAGConfig_LagDeleteEEvPv@Base 3.13.6
 _ZN6google8protobuf8internal21arena_destruct_objectI19PipelineStatsConfigEEvPv@Base 3.13.6
 _ZN6google8protobuf8internal21arena_destruct_objectI19SfpPermitConfig_SFPEEvPv@Base 3.13.34
 _ZN6google8protobuf8internal21arena_destruct_objectI20TWAMPSessionCountersEEvPv@Base 3.13.34
 _ZN6google8protobuf8internal21arena_destruct_objectI21FeatureAffinityConfigEEvPv@Base 3.13.6
 _ZN6google8protobuf8internal21arena_destruct_objectI25PauseConfig_PauseIfConfigEEvPv@Base 3.13.6
 _ZN6google8protobuf8internal21arena_destruct_objectI25RuleMatch_ICMPTypeAndCodeEEvPv@Base 3.13.6
 _ZN6google8protobuf8internal21arena_destruct_objectI26SfpPermitConfig_ListConfigEEvPv@Base 3.13.34
 _ZN6google8protobuf8internal21arena_destruct_objectI27TWAMPSessionCounterResponseEEvPv@Base 3.13.34
 _ZN6google8protobuf8internal21arena_destruct_objectI30SfpPermitConfig_MisMatchConfigEEvPv@Base 3.13.34
 _ZN6google8protobuf8internal21arena_destruct_objectI31BreakoutConfig_BreakoutIfConfigEEvPv@Base 3.13.6
 _ZN6google8protobuf8internal21arena_destruct_objectI31LAGConfig_LagCreate_LacpOptionsEEvPv@Base 3.13.6
 _ZN6google8protobuf8internal21arena_destruct_objectI35MacLimitConfig_MacLimitIfVLANConfigEEvPv@Base 3.13.6
 _ZN6google8protobuf8internal21arena_destruct_objectI36MacLimitConfig_MacLimitProfileConfigEEvPv@Base 3.13.6
 _ZN6google8protobuf8internal21arena_destruct_objectI4PathEEvPv@Base 3.13.6
 _ZN6google8protobuf8internal21arena_destruct_objectI4RuleEEvPv@Base 3.13.6
 _ZN6google8protobuf8internal21arena_destruct_objectI5RouteEEvPv@Base 3.13.6
 _ZN6google8protobuf8internal21arena_destruct_objectI5RulesEEvPv@Base 3.13.6
 _ZN6google8protobuf8internal21arena_destruct_objectI8CgnatLogEEvPv@Base 3.13.6
 _ZN6google8protobuf8internal21arena_destruct_objectI8GPCTableEEvPv@Base 3.13.6
 _ZN6google8protobuf8internal21arena_destruct_objectI8IPPrefixEEvPv@Base 3.13.6
 _ZN6google8protobuf8internal21arena_destruct_objectI8TWAMPCmdEEvPv@Base 3.13.34
 _ZN6google8protobuf8internal21arena_destruct_objectI9GPCConfigEEvPv@Base 3.13.6
 _ZN6google8protobuf8internal21arena_destruct_objectI9IPAddressEEvPv@Base 3.13.6
 _ZN6google8protobuf8internal21arena_destruct_objectI9LAGConfigEEvPv@Base 3.13.6
 _ZN6google8protobuf8internal21arena_destruct_objectI9RibUpdateEEvPv@Base 3.13.6
 _ZN6google8protobuf8internal21arena_destruct_objectI9RuleMatchEEvPv@Base 3.13.6
 _ZN6google8protobuf8internal21arena_destruct_objectI9TimestampEEvPv@Base 3.13.6
 _ZN6google8protobuf8internal21arena_destruct_objectIN6cpp_rl11CPP_limiterEEEvPv@Base 3.13.6
 _ZN6google8protobuf8internal21arena_destruct_objectIN6cpp_rl25CPP_limiter_CPP_attributeEEEvPv@Base 3.13.6
 _ZN6google8protobuf8internal21arena_destruct_objectIN6cpp_rl39CPP_limiter_CPP_attribute_CPP_parameterEEEvPv@Base 3.13.6
 _ZN6google8protobuf8internal21arena_destruct_objectINS1_29InternalMetadataWithArenaBaseINS0_15UnknownFieldSetENS1_25InternalMetadataWithArenaEE9ContainerEEEvPv@Base 3.13.6
 _ZN6google8protobuf8internal21arena_destruct_objectINSt7__cxx1112basic_stringIcSt11char_traitsIcESaIcEEEEEvPv@Base 3.13.6
 _ZN8CgnatLog10SharedCtorEv@Base 3.13.6
 _ZN8CgnatLog10SharedDtorEv@Base 3.13.6
 _ZN8CgnatLog10descriptorEv@Base 3.13.6
 _ZN8CgnatLog12InternalSwapEPS_@Base 3.13.6
 _ZN8CgnatLog13clear_logTypeEv@Base 3.13.6
 _ZN8CgnatLog16default_instanceEv@Base 3.13.6
 _ZN8CgnatLog21InitAsDefaultInstanceEv@Base 3.13.6
 _ZN8CgnatLog22kSessionLogFieldNumberE@Base 3.13.6
 _ZN8CgnatLog23kCgnInstanceFieldNumberE@Base 3.13.6
 _ZN8CgnatLog24set_allocated_sessionlogEP10SessionLog@Base 3.13.6
 _ZN8CgnatLog25kConstraintLogFieldNumberE@Base 3.13.6
 _ZN8CgnatLog25kSubscriberLogFieldNumberE@Base 3.13.6
 _ZN8CgnatLog27MergePartialFromCodedStreamEPN6google8protobuf2io16CodedInputStreamE@Base 3.13.6
 _ZN8CgnatLog27set_allocated_constraintlogEP13ConstraintLog@Base 3.13.6
 _ZN8CgnatLog27set_allocated_subscriberlogEP13SubscriberLog@Base 3.13.6
 _ZN8CgnatLog29kPortAllocationLogFieldNumberE@Base 3.13.6
 _ZN8CgnatLog31set_allocated_portallocationlogEP17PortAllocationLog@Base 3.13.6
 _ZN8CgnatLog4SwapEPS_@Base 3.13.6
 _ZN8CgnatLog5ClearEv@Base 3.13.6
 _ZN8CgnatLog8CopyFromERKN6google8protobuf7MessageE@Base 3.13.6
 _ZN8CgnatLog8CopyFromERKS_@Base 3.13.6
 _ZN8CgnatLog9MergeFromERKN6google8protobuf7MessageE@Base 3.13.6
 _ZN8CgnatLog9MergeFromERKS_@Base 3.13.6
 _ZN8CgnatLogC1ERKS_@Base 3.13.6
 _ZN8CgnatLogC1Ev@Base 3.13.6
 _ZN8CgnatLogC2ERKS_@Base 3.13.6
 _ZN8CgnatLogC2Ev@Base 3.13.6
 _ZN8CgnatLogD0Ev@Base 3.13.6
 _ZN8CgnatLogD1Ev@Base 3.13.6
 _ZN8CgnatLogD2Ev@Base 3.13.6
 _ZN8GPCTable10SharedCtorEv@Base 3.13.6
 _ZN8GPCTable10SharedDtorEv@Base 3.13.6
 _ZN8GPCTable10descriptorEv@Base 3.13.6
 _ZN8GPCTable12InternalSwapEPS_@Base 3.13.6
 _ZN8GPCTable16LOCATION_UNKNOWNE@Base 3.13.6
 _ZN8GPCTable16default_instanceEv@Base 3.13.6
 _ZN8GPCTable17kRulesFieldNumberE@Base 3.13.6
 _ZN8GPCTable18kIfnameFieldNumberE@Base 3.13.6
 _ZN8GPCTable19FeatureLocation_MAXE@Base 3.13.6
 _ZN8GPCTable19FeatureLocation_MINE@Base 3.13.6
 _ZN8GPCTable20kLocationFieldNumberE@Base 3.13.6
 _ZN8GPCTable21InitAsDefaultInstanceEv@Base 3.13.6
 _ZN8GPCTable22kTableNamesFieldNumberE@Base 3.13.6
 _ZN8GPCTable23kTrafficTypeFieldNumberE@Base 3.13.6
 _ZN8GPCTable25FeatureLocation_ARRAYSIZEE@Base 3.13.6
 _ZN8GPCTable27MergePartialFromCodedStreamEPN6google8protobuf2io16CodedInputStreamE@Base 3.13.6
 _ZN8GPCTable4SwapEPS_@Base 3.13.6
 _ZN8GPCTable5ClearEv@Base 3.13.6
 _ZN8GPCTable6EGRESSE@Base 3.13.6
 _ZN8GPCTable7INGRESSE@Base 3.13.6
 _ZN8GPCTable8CopyFromERKN6google8protobuf7MessageE@Base 3.13.6
 _ZN8GPCTable8CopyFromERKS_@Base 3.13.6
 _ZN8GPCTable9MergeFromERKN6google8protobuf7MessageE@Base 3.13.6
 _ZN8GPCTable9MergeFromERKS_@Base 3.13.6
 _ZN8GPCTable9PUNT_PATHE@Base 3.13.6
 _ZN8GPCTableC1ERKS_@Base 3.13.6
 _ZN8GPCTableC1Ev@Base 3.13.6
 _ZN8GPCTableC2ERKS_@Base 3.13.6
 _ZN8GPCTableC2Ev@Base 3.13.6
 _ZN8GPCTableD0Ev@Base 3.13.6
 _ZN8GPCTableD1Ev@Base 3.13.6
 _ZN8GPCTableD2Ev@Base 3.13.6
 _ZN8IPPrefix10SharedCtorEv@Base 3.13.6
 _ZN8IPPrefix10SharedDtorEv@Base 3.13.6
 _ZN8IPPrefix10descriptorEv@Base 3.13.6
 _ZN8IPPrefix12InternalSwapEPS_@Base 3.13.6
 _ZN8IPPrefix16default_instanceEv@Base 3.13.6
 _ZN8IPPrefix18kLengthFieldNumberE@Base 3.13.6
 _ZN8IPPrefix19kAddressFieldNumberE@Base 3.13.6
 _ZN8IPPrefix21InitAsDefaultInstanceEv@Base 3.13.6
 _ZN8IPPrefix27MergePartialFromCodedStreamEPN6google8protobuf2io16CodedInputStreamE@Base 3.13.6
 _ZN8IPPrefix4SwapEPS_@Base 3.13.6
 _ZN8IPPrefix5ClearEv@Base 3.13.6
 _ZN8IPPrefix8CopyFromERKN6google8protobuf7MessageE@Base 3.13.6
 _ZN8IPPrefix8CopyFromERKS_@Base 3.13.6
 _ZN8IPPrefix9MergeFromERKN6google8protobuf7MessageE@Base 3.13.6
 _ZN8IPPrefix9MergeFromERKS_@Base 3.13.6
 _ZN8IPPrefixC1ERKS_@Base 3.13.6
 _ZN8IPPrefixC1Ev@Base 3.13.6
 _ZN8IPPrefixC2ERKS_@Base 3.13.6
 _ZN8IPPrefixC2Ev@Base 3.13.6
 _ZN8IPPrefixD0Ev@Base 3.13.6
 _ZN8IPPrefixD1Ev@Base 3.13.6
 _ZN8IPPrefixD2Ev@Base 3.13.6
 _ZN8TWAMPCmd10SharedCtorEv@Base 3.13.34
 _ZN8TWAMPCmd10SharedDtorEv@Base 3.13.34
 _ZN8TWAMPCmd10descriptorEv@Base 3.13.34
 _ZN8TWAMPCmd11clear_mtypeEv@Base 3.13.34
 _ZN8TWAMPCmd12InternalSwapEPS_@Base 3.13.34
 _ZN8TWAMPCmd16default_instanceEv@Base 3.13.34
 _ZN8TWAMPCmd18kTwInitFieldNumberE@Base 3.13.34
 _ZN8TWAMPCmd21InitAsDefaultInstanceEv@Base 3.13.34
 _ZN8TWAMPCmd21kTwsCreateFieldNumberE@Base 3.13.34
 _ZN8TWAMPCmd21kTwsDeleteFieldNumberE@Base 3.13.34
 _ZN8TWAMPCmd21set_allocated_tw_initEP15TWAMPInitialise@Base 3.13.34
 _ZN8TWAMPCmd23kTwsCountersFieldNumberE@Base 3.13.34
 _ZN8TWAMPCmd24set_allocated_tws_createEP18TWAMPSessionCreate@Base 3.13.34
 _ZN8TWAMPCmd24set_allocated_tws_deleteEP18TWAMPSessionDelete@Base 3.13.34
 _ZN8TWAMPCmd26set_allocated_tws_countersEP20TWAMPSessionCounters@Base 3.13.34
 _ZN8TWAMPCmd27MergePartialFromCodedStreamEPN6google8protobuf2io16CodedInputStreamE@Base 3.13.34
 _ZN8TWAMPCmd4SwapEPS_@Base 3.13.34
 _ZN8TWAMPCmd5ClearEv@Base 3.13.34
 _ZN8TWAMPCmd8CopyFromERKN6google8protobuf7MessageE@Base 3.13.34
 _ZN8TWAMPCmd8CopyFromERKS_@Base 3.13.34
 _ZN8TWAMPCmd9MergeFromERKN6google8protobuf7MessageE@Base 3.13.34
 _ZN8TWAMPCmd9MergeFromERKS_@Base 3.13.34
 _ZN8TWAMPCmdC1ERKS_@Base 3.13.34
 _ZN8TWAMPCmdC1Ev@Base 3.13.34
 _ZN8TWAMPCmdC2ERKS_@Base 3.13.34
 _ZN8TWAMPCmdC2Ev@Base 3.13.34
 _ZN8TWAMPCmdD0Ev@Base 3.13.34
 _ZN8TWAMPCmdD1Ev@Base 3.13.34
 _ZN8TWAMPCmdD2Ev@Base 3.13.34
 _ZN9GPCConfig10SharedCtorEv@Base 3.13.6
 _ZN9GPCConfig10SharedDtorEv@Base 3.13.6
 _ZN9GPCConfig10descriptorEv@Base 3.13.6
 _ZN9GPCConfig12InternalSwapEPS_@Base 3.13.6
 _ZN9GPCConfig15FEATURE_UNKNOWNE@Base 3.13.6
 _ZN9GPCConfig15FeatureType_MAXE@Base 3.13.6
 _ZN9GPCConfig15FeatureType_MINE@Base 3.13.6
 _ZN9GPCConfig16default_instanceEv@Base 3.13.6
 _ZN9GPCConfig18kTablesFieldNumberE@Base 3.13.6
 _ZN9GPCConfig20kCountersFieldNumberE@Base 3.13.6
 _ZN9GPCConfig21FeatureType_ARRAYSIZEE@Base 3.13.6
 _ZN9GPCConfig21InitAsDefaultInstanceEv@Base 3.13.6
 _ZN9GPCConfig23kFeatureTypeFieldNumberE@Base 3.13.6
 _ZN9GPCConfig27MergePartialFromCodedStreamEPN6google8protobuf2io16CodedInputStreamE@Base 3.13.6
 _ZN9GPCConfig3ACLE@Base 3.13.6
 _ZN9GPCConfig3QOSE@Base 3.13.6
 _ZN9GPCConfig4SwapEPS_@Base 3.13.6
 _ZN9GPCConfig5ClearEv@Base 3.13.6
 _ZN9GPCConfig8CopyFromERKN6google8protobuf7MessageE@Base 3.13.6
 _ZN9GPCConfig8CopyFromERKS_@Base 3.13.6
 _ZN9GPCConfig9MergeFromERKN6google8protobuf7MessageE@Base 3.13.6
 _ZN9GPCConfig9MergeFromERKS_@Base 3.13.6
 _ZN9GPCConfigC1ERKS_@Base 3.13.6
 _ZN9GPCConfigC1Ev@Base 3.13.6
 _ZN9GPCConfigC2ERKS_@Base 3.13.6
 _ZN9GPCConfigC2Ev@Base 3.13.6
 _ZN9GPCConfigD0Ev@Base 3.13.6
 _ZN9GPCConfigD1Ev@Base 3.13.6
 _ZN9GPCConfigD2Ev@Base 3.13.6
 _ZN9IPAddress10SharedCtorEv@Base 3.13.6
 _ZN9IPAddress10SharedDtorEv@Base 3.13.6
 _ZN9IPAddress10descriptorEv@Base 3.13.6
 _ZN9IPAddress12InternalSwapEPS_@Base 3.13.6
 _ZN9IPAddress16default_instanceEv@Base 3.13.6
 _ZN9IPAddress19clear_address_oneofEv@Base 3.13.6
 _ZN9IPAddress20kIpv4AddrFieldNumberE@Base 3.13.6
 _ZN9IPAddress20kIpv6AddrFieldNumberE@Base 3.13.6
 _ZN9IPAddress21InitAsDefaultInstanceEv@Base 3.13.6
 _ZN9IPAddress27MergePartialFromCodedStreamEPN6google8protobuf2io16CodedInputStreamE@Base 3.13.6
 _ZN9IPAddress4SwapEPS_@Base 3.13.6
 _ZN9IPAddress5ClearEv@Base 3.13.6
 _ZN9IPAddress8CopyFromERKN6google8protobuf7MessageE@Base 3.13.6
 _ZN9IPAddress8CopyFromERKS_@Base 3.13.6
 _ZN9IPAddress9MergeFromERKN6google8protobuf7MessageE@Base 3.13.6
 _ZN9IPAddress9MergeFromERKS_@Base 3.13.6
 _ZN9IPAddressC1ERKS_@Base 3.13.6
 _ZN9IPAddressC1Ev@Base 3.13.6
 _ZN9IPAddressC2ERKS_@Base 3.13.6
 _ZN9IPAddressC2Ev@Base 3.13.6
 _ZN9IPAddressD0Ev@Base 3.13.6
 _ZN9IPAddressD1Ev@Base 3.13.6
 _ZN9IPAddressD2Ev@Base 3.13.6
 _ZN9LAGConfig10SharedCtorEv@Base 3.13.6
 _ZN9LAGConfig10SharedDtorEv@Base 3.13.6
 _ZN9LAGConfig10descriptorEv@Base 3.13.6
 _ZN9LAGConfig11LagMode_MAXE@Base 3.13.6
 _ZN9LAGConfig11LagMode_MINE@Base 3.13.6
 _ZN9LAGConfig11clear_mtypeEv@Base 3.13.6
 _ZN9LAGConfig12InternalSwapEPS_@Base 3.13.6
 _ZN9LAGConfig13LAG_MODE_LACPE@Base 3.13.6
 _ZN9LAGConfig16LacpActivity_MAXE@Base 3.13.6
 _ZN9LAGConfig16LacpActivity_MINE@Base 3.13.6
 _ZN9LAGConfig16default_instanceEv@Base 3.13.6
 _ZN9LAGConfig17LAG_MODE_BALANCEDE@Base 3.13.6
 _ZN9LAGConfig17LagMode_ARRAYSIZEE@Base 3.13.6
 _ZN9LAGConfig20LACP_ACTIVITY_ACTIVEE@Base 3.13.6
 _ZN9LAGConfig20LacpPeriodicRate_MAXE@Base 3.13.6
 _ZN9LAGConfig20LacpPeriodicRate_MINE@Base 3.13.6
 _ZN9LAGConfig21InitAsDefaultInstanceEv@Base 3.13.6
 _ZN9LAGConfig21LACP_ACTIVITY_PASSIVEE@Base 3.13.6
 _ZN9LAGConfig21kLagCreateFieldNumberE@Base 3.13.6
 _ZN9LAGConfig21kLagDeleteFieldNumberE@Base 3.13.6
 _ZN9LAGConfig22LAG_MODE_ACTIVE_BACKUPE@Base 3.13.6
 _ZN9LAGConfig22LacpActivity_ARRAYSIZEE@Base 3.13.6
 _ZN9LAGConfig23LACP_PERIODIC_RATE_FASTE@Base 3.13.6
 _ZN9LAGConfig23LACP_PERIODIC_RATE_SLOWE@Base 3.13.6
 _ZN9LAGConfig24set_allocated_lag_createEP19LAGConfig_LagCreate@Base 3.13.6
 _ZN9LAGConfig24set_allocated_lag_deleteEP19LAGConfig_LagDelete@Base 3.13.6
 _ZN9LAGConfig26LacpPeriodicRate_ARRAYSIZEE@Base 3.13.6
 _ZN9LAGConfig27MergePartialFromCodedStreamEPN6google8protobuf2io16CodedInputStreamE@Base 3.13.6
 _ZN9LAGConfig4SwapEPS_@Base 3.13.6
 _ZN9LAGConfig5ClearEv@Base 3.13.6
 _ZN9LAGConfig8CopyFromERKN6google8protobuf7MessageE@Base 3.13.6
 _ZN9LAGConfig8CopyFromERKS_@Base 3.13.6
 _ZN9LAGConfig9MergeFromERKN6google8protobuf7MessageE@Base 3.13.6
 _ZN9LAGConfig9MergeFromERKS_@Base 3.13.6
 _ZN9LAGConfigC1ERKS_@Base 3.13.6
 _ZN9LAGConfigC1Ev@Base 3.13.6
 _ZN9LAGConfigC2ERKS_@Base 3.13.6
 _ZN9LAGConfigC2Ev@Base 3.13.6
 _ZN9LAGConfigD0Ev@Base 3.13.6
 _ZN9LAGConfigD1Ev@Base 3.13.6
 _ZN9LAGConfigD2Ev@Base 3.13.6
 _ZN9RibUpdate10Action_MAXE@Base 3.13.6
 _ZN9RibUpdate10Action_MINE@Base 3.13.6
 _ZN9RibUpdate10SharedCtorEv@Base 3.13.6
 _ZN9RibUpdate10SharedDtorEv@Base 3.13.6
 _ZN9RibUpdate10descriptorEv@Base 3.13.6
 _ZN9RibUpdate11clear_routeEv@Base 3.13.6
 _ZN9RibUpdate12InternalSwapEPS_@Base 3.13.6
 _ZN9RibUpdate16Action_ARRAYSIZEE@Base 3.13.6
 _ZN9RibUpdate16default_instanceEv@Base 3.13.6
 _ZN9RibUpdate17kRouteFieldNumberE@Base 3.13.6
 _ZN9RibUpdate18kActionFieldNumberE@Base 3.13.6
 _ZN9RibUpdate21InitAsDefaultInstanceEv@Base 3.13.6
 _ZN9RibUpdate27MergePartialFromCodedStreamEPN6google8protobuf2io16CodedInputStreamE@Base 3.13.6
 _ZN9RibUpdate4SwapEPS_@Base 3.13.6
 _ZN9RibUpdate5ClearEv@Base 3.13.6
 _ZN9RibUpdate6DELETEE@Base 3.13.6
 _ZN9RibUpdate6UPDATEE@Base 3.13.6
 _ZN9RibUpdate8CopyFromERKN6google8protobuf7MessageE@Base 3.13.6
 _ZN9RibUpdate8CopyFromERKS_@Base 3.13.6
 _ZN9RibUpdate9MergeFromERKN6google8protobuf7MessageE@Base 3.13.6
 _ZN9RibUpdate9MergeFromERKS_@Base 3.13.6
 _ZN9RibUpdateC1ERKS_@Base 3.13.6
 _ZN9RibUpdateC1Ev@Base 3.13.6
 _ZN9RibUpdateC2ERKS_@Base 3.13.6
 _ZN9RibUpdateC2Ev@Base 3.13.6
 _ZN9RibUpdateD0Ev@Base 3.13.6
 _ZN9RibUpdateD1Ev@Base 3.13.6
 _ZN9RibUpdateD2Ev@Base 3.13.6
 _ZN9RuleMatch10CLASS_INFOE@Base 3.13.6
 _ZN9RuleMatch10SharedCtorEv@Base 3.13.6
 _ZN9RuleMatch10SharedDtorEv@Base 3.13.6
 _ZN9RuleMatch10descriptorEv@Base 3.13.6
 _ZN9RuleMatch11CLASS_ERRORE@Base 3.13.6
 _ZN9RuleMatch12FRAGMENT_ANYE@Base 3.13.6
 _ZN9RuleMatch12InternalSwapEPS_@Base 3.13.6
 _ZN9RuleMatch12clear_src_ipEv@Base 3.13.6
 _ZN9RuleMatch13CLASS_UNKNOWNE@Base 3.13.6
 _ZN9RuleMatch13FragValue_MAXE@Base 3.13.6
 _ZN9RuleMatch13FragValue_MINE@Base 3.13.6
 _ZN9RuleMatch13clear_dest_ipEv@Base 3.13.6
 _ZN9RuleMatch15ICMPV6Class_MAXE@Base 3.13.6
 _ZN9RuleMatch15ICMPV6Class_MINE@Base 3.13.6
 _ZN9RuleMatch15kTtlFieldNumberE@Base 3.13.6
 _ZN9RuleMatch16FRAGMENT_INITIALE@Base 3.13.6
 _ZN9RuleMatch16FRAGMENT_UNKNOWNE@Base 3.13.6
 _ZN9RuleMatch16default_instanceEv@Base 3.13.6
 _ZN9RuleMatch16kDscpFieldNumberE@Base 3.13.6
 _ZN9RuleMatch17clear_match_valueEv@Base 3.13.6
 _ZN9RuleMatch17kSrcIpFieldNumberE@Base 3.13.6
 _ZN9RuleMatch18kDestIpFieldNumberE@Base 3.13.6
 _ZN9RuleMatch18kIcmpv4FieldNumberE@Base 3.13.6
 _ZN9RuleMatch18kIcmpv6FieldNumberE@Base 3.13.6
 _ZN9RuleMatch19FRAGMENT_SUBSEQUENTE@Base 3.13.6
 _ZN9RuleMatch19FragValue_ARRAYSIZEE@Base 3.13.6
 _ZN9RuleMatch19kSrcPortFieldNumberE@Base 3.13.6
 _ZN9RuleMatch20kDestPortFieldNumberE@Base 3.13.6
 _ZN9RuleMatch20kFragmentFieldNumberE@Base 3.13.6
 _ZN9RuleMatch20set_allocated_icmpv4EP25RuleMatch_ICMPTypeAndCode@Base 3.13.6
 _ZN9RuleMatch20set_allocated_icmpv6EP25RuleMatch_ICMPTypeAndCode@Base 3.13.6
 _ZN9RuleMatch20set_allocated_src_ipEP8IPPrefix@Base 3.13.6
 _ZN9RuleMatch21ICMPV6Class_ARRAYSIZEE@Base 3.13.6
 _ZN9RuleMatch21InitAsDefaultInstanceEv@Base 3.13.6
 _ZN9RuleMatch21kProtoBaseFieldNumberE@Base 3.13.6
 _ZN9RuleMatch21set_allocated_dest_ipEP8IPPrefix@Base 3.13.6
 _ZN9RuleMatch22kProtoFinalFieldNumberE@Base 3.13.6
 _ZN9RuleMatch23kIcmpv6ClassFieldNumberE@Base 3.13.6
 _ZN9RuleMatch27MergePartialFromCodedStreamEPN6google8protobuf2io16CodedInputStreamE@Base 3.13.6
 _ZN9RuleMatch4SwapEPS_@Base 3.13.6
 _ZN9RuleMatch5ClearEv@Base 3.13.6
 _ZN9RuleMatch8CopyFromERKN6google8protobuf7MessageE@Base 3.13.6
 _ZN9RuleMatch8CopyFromERKS_@Base 3.13.6
 _ZN9RuleMatch9MergeFromERKN6google8protobuf7MessageE@Base 3.13.6
 _ZN9RuleMatch9MergeFromERKS_@Base 3.13.6
 _ZN9RuleMatchC1ERKS_@Base 3.13.6
 _ZN9RuleMatchC1Ev@Base 3.13.6
 _ZN9RuleMatchC2ERKS_@Base 3.13.6
 _ZN9RuleMatchC2Ev@Base 3.13.6
 _ZN9RuleMatchD0Ev@Base 3.13.6
 _ZN9RuleMatchD1Ev@Base 3.13.6
 _ZN9RuleMatchD2Ev@Base 3.13.6
 _ZN9Timestamp10SharedCtorEv@Base 3.13.6
 _ZN9Timestamp10SharedDtorEv@Base 3.13.6
 _ZN9Timestamp10descriptorEv@Base 3.13.6
 _ZN9Timestamp12InternalSwapEPS_@Base 3.13.6
 _ZN9Timestamp16default_instanceEv@Base 3.13.6
 _ZN9Timestamp17kNanosFieldNumberE@Base 3.13.6
 _ZN9Timestamp19kSecondsFieldNumberE@Base 3.13.6
 _ZN9Timestamp21InitAsDefaultInstanceEv@Base 3.13.6
 _ZN9Timestamp27MergePartialFromCodedStreamEPN6google8protobuf2io16CodedInputStreamE@Base 3.13.6
 _ZN9Timestamp4SwapEPS_@Base 3.13.6
 _ZN9Timestamp5ClearEv@Base 3.13.6
 _ZN9Timestamp8CopyFromERKN6google8protobuf7MessageE@Base 3.13.6
 _ZN9Timestamp8CopyFromERKS_@Base 3.13.6
 _ZN9Timestamp9MergeFromERKN6google8protobuf7MessageE@Base 3.13.6
 _ZN9Timestamp9MergeFromERKS_@Base 3.13.6
 _ZN9TimestampC1ERKS_@Base 3.13.6
 _ZN9TimestampC1Ev@Base 3.13.6
 _ZN9TimestampC2ERKS_@Base 3.13.6
 _ZN9TimestampC2Ev@Base 3.13.6
 _ZN9TimestampD0Ev@Base 3.13.6
 _ZN9TimestampD1Ev@Base 3.13.6
 _ZN9TimestampD2Ev@Base 3.13.6
 _ZNK10GArpConfig11GetMetadataEv@Base 3.13.6
 _ZNK10GArpConfig12ByteSizeLongEv@Base 3.13.6
 _ZNK10GArpConfig13IsInitializedEv@Base 3.13.6
 _ZNK10GArpConfig13SetCachedSizeEi@Base 3.13.6
 _ZNK10GArpConfig24SerializeWithCachedSizesEPN6google8protobuf2io17CodedOutputStreamE@Base 3.13.6
 _ZNK10GArpConfig39InternalSerializeWithCachedSizesToArrayEbPh@Base 3.13.6
 _ZNK10GPCCounter11GetMetadataEv@Base 3.13.6
 _ZNK10GPCCounter12ByteSizeLongEv@Base 3.13.6
 _ZNK10GPCCounter13IsInitializedEv@Base 3.13.6
 _ZNK10GPCCounter13SetCachedSizeEi@Base 3.13.6
 _ZNK10GPCCounter24SerializeWithCachedSizesEPN6google8protobuf2io17CodedOutputStreamE@Base 3.13.6
 _ZNK10GPCCounter39InternalSerializeWithCachedSizesToArrayEbPh@Base 3.13.6
 _ZNK10RuleAction11GetMetadataEv@Base 3.13.6
 _ZNK10RuleAction12ByteSizeLongEv@Base 3.13.6
 _ZNK10RuleAction13IsInitializedEv@Base 3.13.6
 _ZNK10RuleAction13SetCachedSizeEi@Base 3.13.6
 _ZNK10RuleAction24SerializeWithCachedSizesEPN6google8protobuf2io17CodedOutputStreamE@Base 3.13.6
 _ZNK10RuleAction39InternalSerializeWithCachedSizesToArrayEbPh@Base 3.13.6
 _ZNK10SessionLog11GetMetadataEv@Base 3.13.6
 _ZNK10SessionLog12ByteSizeLongEv@Base 3.13.6
 _ZNK10SessionLog13IsInitializedEv@Base 3.13.6
 _ZNK10SessionLog13SetCachedSizeEi@Base 3.13.6
 _ZNK10SessionLog24SerializeWithCachedSizesEPN6google8protobuf2io17CodedOutputStreamE@Base 3.13.6
 _ZNK10SessionLog39InternalSerializeWithCachedSizesToArrayEbPh@Base 3.13.6
 _ZNK11PPPOEConfig11GetMetadataEv@Base 3.13.6
 _ZNK11PPPOEConfig12ByteSizeLongEv@Base 3.13.6
 _ZNK11PPPOEConfig13IsInitializedEv@Base 3.13.6
 _ZNK11PPPOEConfig13SetCachedSizeEi@Base 3.13.6
 _ZNK11PPPOEConfig24SerializeWithCachedSizesEPN6google8protobuf2io17CodedOutputStreamE@Base 3.13.6
 _ZNK11PPPOEConfig39InternalSerializeWithCachedSizesToArrayEbPh@Base 3.13.6
 _ZNK11PauseConfig11GetMetadataEv@Base 3.13.6
 _ZNK11PauseConfig12ByteSizeLongEv@Base 3.13.6
 _ZNK11PauseConfig13IsInitializedEv@Base 3.13.6
 _ZNK11PauseConfig13SetCachedSizeEi@Base 3.13.6
 _ZNK11PauseConfig24SerializeWithCachedSizesEPN6google8protobuf2io17CodedOutputStreamE@Base 3.13.6
 _ZNK11PauseConfig39InternalSerializeWithCachedSizesToArrayEbPh@Base 3.13.6
 _ZNK11RuleCounter11GetMetadataEv@Base 3.13.6
 _ZNK11RuleCounter12ByteSizeLongEv@Base 3.13.6
 _ZNK11RuleCounter13IsInitializedEv@Base 3.13.6
 _ZNK11RuleCounter13SetCachedSizeEi@Base 3.13.6
 _ZNK11RuleCounter24SerializeWithCachedSizesEPN6google8protobuf2io17CodedOutputStreamE@Base 3.13.6
 _ZNK11RuleCounter39InternalSerializeWithCachedSizesToArrayEbPh@Base 3.13.6
 _ZNK11SpeedConfig11GetMetadataEv@Base 3.13.6
 _ZNK11SpeedConfig12ByteSizeLongEv@Base 3.13.6
 _ZNK11SpeedConfig13IsInitializedEv@Base 3.13.6
 _ZNK11SpeedConfig13SetCachedSizeEi@Base 3.13.6
 _ZNK11SpeedConfig24SerializeWithCachedSizesEPN6google8protobuf2io17CodedOutputStreamE@Base 3.13.6
 _ZNK11SpeedConfig39InternalSerializeWithCachedSizesToArrayEbPh@Base 3.13.6
 _ZNK11SynceConfig11GetMetadataEv@Base 3.13.6
 _ZNK11SynceConfig12ByteSizeLongEv@Base 3.13.6
 _ZNK11SynceConfig13IsInitializedEv@Base 3.13.6
 _ZNK11SynceConfig13SetCachedSizeEi@Base 3.13.6
 _ZNK11SynceConfig24SerializeWithCachedSizesEPN6google8protobuf2io17CodedOutputStreamE@Base 3.13.6
 _ZNK11SynceConfig39InternalSerializeWithCachedSizesToArrayEbPh@Base 3.13.6
 _ZNK12DPSessionMsg11GetMetadataEv@Base 3.13.34
 _ZNK12DPSessionMsg12ByteSizeLongEv@Base 3.13.34
 _ZNK12DPSessionMsg13IsInitializedEv@Base 3.13.34
 _ZNK12DPSessionMsg13SetCachedSizeEi@Base 3.13.34
 _ZNK12DPSessionMsg24SerializeWithCachedSizesEPN6google8protobuf2io17CodedOutputStreamE@Base 3.13.34
 _ZNK12DPSessionMsg39InternalSerializeWithCachedSizesToArrayEbPh@Base 3.13.34
 _ZNK12NbrResConfig11GetMetadataEv@Base 3.13.6
 _ZNK12NbrResConfig12ByteSizeLongEv@Base 3.13.6
 _ZNK12NbrResConfig13IsInitializedEv@Base 3.13.6
 _ZNK12NbrResConfig13SetCachedSizeEi@Base 3.13.6
 _ZNK12NbrResConfig24SerializeWithCachedSizesEPN6google8protobuf2io17CodedOutputStreamE@Base 3.13.6
 _ZNK12NbrResConfig39InternalSerializeWithCachedSizesToArrayEbPh@Base 3.13.6
 _ZNK12TCPMSSConfig11GetMetadataEv@Base 3.13.6
 _ZNK12TCPMSSConfig12ByteSizeLongEv@Base 3.13.6
 _ZNK12TCPMSSConfig13IsInitializedEv@Base 3.13.6
 _ZNK12TCPMSSConfig13SetCachedSizeEi@Base 3.13.6
 _ZNK12TCPMSSConfig24SerializeWithCachedSizesEPN6google8protobuf2io17CodedOutputStreamE@Base 3.13.6
 _ZNK12TCPMSSConfig39InternalSerializeWithCachedSizesToArrayEbPh@Base 3.13.6
 _ZNK12TCPWindowMsg11GetMetadataEv@Base 3.13.34
 _ZNK12TCPWindowMsg12ByteSizeLongEv@Base 3.13.34
 _ZNK12TCPWindowMsg13IsInitializedEv@Base 3.13.34
 _ZNK12TCPWindowMsg13SetCachedSizeEi@Base 3.13.34
 _ZNK12TCPWindowMsg24SerializeWithCachedSizesEPN6google8protobuf2io17CodedOutputStreamE@Base 3.13.34
 _ZNK12TCPWindowMsg39InternalSerializeWithCachedSizesToArrayEbPh@Base 3.13.34
 _ZNK12VFPSetConfig11GetMetadataEv@Base 3.13.6
 _ZNK12VFPSetConfig12ByteSizeLongEv@Base 3.13.6
 _ZNK12VFPSetConfig13IsInitializedEv@Base 3.13.6
 _ZNK12VFPSetConfig13SetCachedSizeEi@Base 3.13.6
 _ZNK12VFPSetConfig24SerializeWithCachedSizesEPN6google8protobuf2io17CodedOutputStreamE@Base 3.13.6
 _ZNK12VFPSetConfig39InternalSerializeWithCachedSizesToArrayEbPh@Base 3.13.6
 _ZNK13ConstraintLog11GetMetadataEv@Base 3.13.6
 _ZNK13ConstraintLog12ByteSizeLongEv@Base 3.13.6
 _ZNK13ConstraintLog13IsInitializedEv@Base 3.13.6
 _ZNK13ConstraintLog13SetCachedSizeEi@Base 3.13.6
 _ZNK13ConstraintLog24SerializeWithCachedSizesEPN6google8protobuf2io17CodedOutputStreamE@Base 3.13.6
 _ZNK13ConstraintLog39InternalSerializeWithCachedSizesToArrayEbPh@Base 3.13.6
 _ZNK13NPFSessionMsg11GetMetadataEv@Base 3.13.34
 _ZNK13NPFSessionMsg12ByteSizeLongEv@Base 3.13.34
 _ZNK13NPFSessionMsg13IsInitializedEv@Base 3.13.34
 _ZNK13NPFSessionMsg13SetCachedSizeEi@Base 3.13.34
 _ZNK13NPFSessionMsg24SerializeWithCachedSizesEPN6google8protobuf2io17CodedOutputStreamE@Base 3.13.34
 _ZNK13NPFSessionMsg39InternalSerializeWithCachedSizesToArrayEbPh@Base 3.13.34
 _ZNK13PolicerParams11GetMetadataEv@Base 3.13.6
 _ZNK13PolicerParams12ByteSizeLongEv@Base 3.13.6
 _ZNK13PolicerParams13IsInitializedEv@Base 3.13.6
 _ZNK13PolicerParams13SetCachedSizeEi@Base 3.13.6
 _ZNK13PolicerParams24SerializeWithCachedSizesEPN6google8protobuf2io17CodedOutputStreamE@Base 3.13.6
 _ZNK13PolicerParams39InternalSerializeWithCachedSizesToArrayEbPh@Base 3.13.6
 _ZNK13SubscriberLog11GetMetadataEv@Base 3.13.6
 _ZNK13SubscriberLog12ByteSizeLongEv@Base 3.13.6
 _ZNK13SubscriberLog13IsInitializedEv@Base 3.13.6
 _ZNK13SubscriberLog13SetCachedSizeEi@Base 3.13.6
 _ZNK13SubscriberLog24SerializeWithCachedSizesEPN6google8protobuf2io17CodedOutputStreamE@Base 3.13.6
 _ZNK13SubscriberLog39InternalSerializeWithCachedSizesToArrayEbPh@Base 3.13.6
 _ZNK14BreakoutConfig11GetMetadataEv@Base 3.13.6
 _ZNK14BreakoutConfig12ByteSizeLongEv@Base 3.13.6
 _ZNK14BreakoutConfig13IsInitializedEv@Base 3.13.6
 _ZNK14BreakoutConfig13SetCachedSizeEi@Base 3.13.6
 _ZNK14BreakoutConfig24SerializeWithCachedSizesEPN6google8protobuf2io17CodedOutputStreamE@Base 3.13.6
 _ZNK14BreakoutConfig39InternalSerializeWithCachedSizesToArrayEbPh@Base 3.13.6
 _ZNK14MacLimitConfig11GetMetadataEv@Base 3.13.6
 _ZNK14MacLimitConfig12ByteSizeLongEv@Base 3.13.6
 _ZNK14MacLimitConfig13IsInitializedEv@Base 3.13.6
 _ZNK14MacLimitConfig13SetCachedSizeEi@Base 3.13.6
 _ZNK14MacLimitConfig24SerializeWithCachedSizesEPN6google8protobuf2io17CodedOutputStreamE@Base 3.13.6
 _ZNK14MacLimitConfig39InternalSerializeWithCachedSizesToArrayEbPh@Base 3.13.6
 _ZNK14XConnectConfig11GetMetadataEv@Base 3.13.6
 _ZNK14XConnectConfig12ByteSizeLongEv@Base 3.13.6
 _ZNK14XConnectConfig13IsInitializedEv@Base 3.13.6
 _ZNK14XConnectConfig13SetCachedSizeEi@Base 3.13.6
 _ZNK14XConnectConfig24SerializeWithCachedSizesEPN6google8protobuf2io17CodedOutputStreamE@Base 3.13.6
 _ZNK14XConnectConfig39InternalSerializeWithCachedSizesToArrayEbPh@Base 3.13.6
 _ZNK15DPSessionKeyMsg11GetMetadataEv@Base 3.13.34
 _ZNK15DPSessionKeyMsg12ByteSizeLongEv@Base 3.13.34
 _ZNK15DPSessionKeyMsg13IsInitializedEv@Base 3.13.34
 _ZNK15DPSessionKeyMsg13SetCachedSizeEi@Base 3.13.34
 _ZNK15DPSessionKeyMsg24SerializeWithCachedSizesEPN6google8protobuf2io17CodedOutputStreamE@Base 3.13.34
 _ZNK15DPSessionKeyMsg39InternalSerializeWithCachedSizesToArrayEbPh@Base 3.13.34
 _ZNK15SfpPermitConfig11GetMetadataEv@Base 3.13.34
 _ZNK15SfpPermitConfig12ByteSizeLongEv@Base 3.13.34
 _ZNK15SfpPermitConfig13IsInitializedEv@Base 3.13.34
 _ZNK15SfpPermitConfig13SetCachedSizeEi@Base 3.13.34
 _ZNK15SfpPermitConfig24SerializeWithCachedSizesEPN6google8protobuf2io17CodedOutputStreamE@Base 3.13.34
 _ZNK15SfpPermitConfig39InternalSerializeWithCachedSizesToArrayEbPh@Base 3.13.34
 _ZNK15TWAMPInitialise11GetMetadataEv@Base 3.13.34
 _ZNK15TWAMPInitialise12ByteSizeLongEv@Base 3.13.34
 _ZNK15TWAMPInitialise13IsInitializedEv@Base 3.13.34
 _ZNK15TWAMPInitialise13SetCachedSizeEi@Base 3.13.34
 _ZNK15TWAMPInitialise24SerializeWithCachedSizesEPN6google8protobuf2io17CodedOutputStreamE@Base 3.13.34
 _ZNK15TWAMPInitialise39InternalSerializeWithCachedSizesToArrayEbPh@Base 3.13.34
 _ZNK15TWAMPSessionKey11GetMetadataEv@Base 3.13.34
 _ZNK15TWAMPSessionKey12ByteSizeLongEv@Base 3.13.34
 _ZNK15TWAMPSessionKey13IsInitializedEv@Base 3.13.34
 _ZNK15TWAMPSessionKey13SetCachedSizeEi@Base 3.13.34
 _ZNK15TWAMPSessionKey24SerializeWithCachedSizesEPN6google8protobuf2io17CodedOutputStreamE@Base 3.13.34
 _ZNK15TWAMPSessionKey39InternalSerializeWithCachedSizesToArrayEbPh@Base 3.13.34
 _ZNK16IPAddressOrLabel11GetMetadataEv@Base 3.13.6
 _ZNK16IPAddressOrLabel12ByteSizeLongEv@Base 3.13.6
 _ZNK16IPAddressOrLabel13IsInitializedEv@Base 3.13.6
 _ZNK16IPAddressOrLabel13SetCachedSizeEi@Base 3.13.6
 _ZNK16IPAddressOrLabel24SerializeWithCachedSizesEPN6google8protobuf2io17CodedOutputStreamE@Base 3.13.6
 _ZNK16IPAddressOrLabel39InternalSerializeWithCachedSizesToArrayEbPh@Base 3.13.6
 _ZNK16TWAMPCmdResponse11GetMetadataEv@Base 3.13.34
 _ZNK16TWAMPCmdResponse12ByteSizeLongEv@Base 3.13.34
 _ZNK16TWAMPCmdResponse13IsInitializedEv@Base 3.13.34
 _ZNK16TWAMPCmdResponse13SetCachedSizeEi@Base 3.13.34
 _ZNK16TWAMPCmdResponse24SerializeWithCachedSizesEPN6google8protobuf2io17CodedOutputStreamE@Base 3.13.34
 _ZNK16TWAMPCmdResponse39InternalSerializeWithCachedSizesToArrayEbPh@Base 3.13.34
 _ZNK17DPSessionStateMsg11GetMetadataEv@Base 3.13.34
 _ZNK17DPSessionStateMsg12ByteSizeLongEv@Base 3.13.34
 _ZNK17DPSessionStateMsg13IsInitializedEv@Base 3.13.34
 _ZNK17DPSessionStateMsg13SetCachedSizeEi@Base 3.13.34
 _ZNK17DPSessionStateMsg24SerializeWithCachedSizesEPN6google8protobuf2io17CodedOutputStreamE@Base 3.13.34
 _ZNK17DPSessionStateMsg39InternalSerializeWithCachedSizesToArrayEbPh@Base 3.13.34
 _ZNK17DataplaneEnvelope11GetMetadataEv@Base 3.13.6
 _ZNK17DataplaneEnvelope12ByteSizeLongEv@Base 3.13.6
 _ZNK17DataplaneEnvelope13IsInitializedEv@Base 3.13.6
 _ZNK17DataplaneEnvelope13SetCachedSizeEi@Base 3.13.6
 _ZNK17DataplaneEnvelope24SerializeWithCachedSizesEPN6google8protobuf2io17CodedOutputStreamE@Base 3.13.6
 _ZNK17DataplaneEnvelope30RequiredFieldsByteSizeFallbackEv@Base 3.13.6
 _ZNK17DataplaneEnvelope39InternalSerializeWithCachedSizesToArrayEbPh@Base 3.13.6
 _ZNK17ICMPRateLimConfig11GetMetadataEv@Base 3.13.34
 _ZNK17ICMPRateLimConfig12ByteSizeLongEv@Base 3.13.34
 _ZNK17ICMPRateLimConfig13IsInitializedEv@Base 3.13.34
 _ZNK17ICMPRateLimConfig13SetCachedSizeEi@Base 3.13.34
 _ZNK17ICMPRateLimConfig24SerializeWithCachedSizesEPN6google8protobuf2io17CodedOutputStreamE@Base 3.13.34
 _ZNK17ICMPRateLimConfig39InternalSerializeWithCachedSizesToArrayEbPh@Base 3.13.34
 _ZNK17PortAllocationLog11GetMetadataEv@Base 3.13.6
 _ZNK17PortAllocationLog12ByteSizeLongEv@Base 3.13.6
 _ZNK17PortAllocationLog13IsInitializedEv@Base 3.13.6
 _ZNK17PortAllocationLog13SetCachedSizeEi@Base 3.13.6
 _ZNK17PortAllocationLog24SerializeWithCachedSizesEPN6google8protobuf2io17CodedOutputStreamE@Base 3.13.6
 _ZNK17PortAllocationLog39InternalSerializeWithCachedSizesToArrayEbPh@Base 3.13.6
 _ZNK18CryptoPolicyConfig11GetMetadataEv@Base 3.13.6
 _ZNK18CryptoPolicyConfig12ByteSizeLongEv@Base 3.13.6
 _ZNK18CryptoPolicyConfig13IsInitializedEv@Base 3.13.6
 _ZNK18CryptoPolicyConfig13SetCachedSizeEi@Base 3.13.6
 _ZNK18CryptoPolicyConfig24SerializeWithCachedSizesEPN6google8protobuf2io17CodedOutputStreamE@Base 3.13.6
 _ZNK18CryptoPolicyConfig39InternalSerializeWithCachedSizesToArrayEbPh@Base 3.13.6
 _ZNK18IP6RedirectsConfig11GetMetadataEv@Base 3.13.6
 _ZNK18IP6RedirectsConfig12ByteSizeLongEv@Base 3.13.6
 _ZNK18IP6RedirectsConfig13IsInitializedEv@Base 3.13.6
 _ZNK18IP6RedirectsConfig13SetCachedSizeEi@Base 3.13.6
 _ZNK18IP6RedirectsConfig24SerializeWithCachedSizesEPN6google8protobuf2io17CodedOutputStreamE@Base 3.13.6
 _ZNK18IP6RedirectsConfig39InternalSerializeWithCachedSizesToArrayEbPh@Base 3.13.6
 _ZNK18NPFSessionStateMsg11GetMetadataEv@Base 3.13.34
 _ZNK18NPFSessionStateMsg12ByteSizeLongEv@Base 3.13.34
 _ZNK18NPFSessionStateMsg13IsInitializedEv@Base 3.13.34
 _ZNK18NPFSessionStateMsg13SetCachedSizeEi@Base 3.13.34
 _ZNK18NPFSessionStateMsg24SerializeWithCachedSizesEPN6google8protobuf2io17CodedOutputStreamE@Base 3.13.34
 _ZNK18NPFSessionStateMsg39InternalSerializeWithCachedSizesToArrayEbPh@Base 3.13.34
 _ZNK18PackedDPSessionMsg11GetMetadataEv@Base 3.13.34
 _ZNK18PackedDPSessionMsg12ByteSizeLongEv@Base 3.13.34
 _ZNK18PackedDPSessionMsg13IsInitializedEv@Base 3.13.34
 _ZNK18PackedDPSessionMsg13SetCachedSizeEi@Base 3.13.34
 _ZNK18PackedDPSessionMsg24SerializeWithCachedSizesEPN6google8protobuf2io17CodedOutputStreamE@Base 3.13.34
 _ZNK18PackedDPSessionMsg39InternalSerializeWithCachedSizesToArrayEbPh@Base 3.13.34
 _ZNK18TWAMPSessionCreate11GetMetadataEv@Base 3.13.34
 _ZNK18TWAMPSessionCreate12ByteSizeLongEv@Base 3.13.34
 _ZNK18TWAMPSessionCreate13IsInitializedEv@Base 3.13.34
 _ZNK18TWAMPSessionCreate13SetCachedSizeEi@Base 3.13.34
 _ZNK18TWAMPSessionCreate24SerializeWithCachedSizesEPN6google8protobuf2io17CodedOutputStreamE@Base 3.13.34
 _ZNK18TWAMPSessionCreate39InternalSerializeWithCachedSizesToArrayEbPh@Base 3.13.34
 _ZNK18TWAMPSessionDelete11GetMetadataEv@Base 3.13.34
 _ZNK18TWAMPSessionDelete12ByteSizeLongEv@Base 3.13.34
 _ZNK18TWAMPSessionDelete13IsInitializedEv@Base 3.13.34
 _ZNK18TWAMPSessionDelete13SetCachedSizeEi@Base 3.13.34
 _ZNK18TWAMPSessionDelete24SerializeWithCachedSizesEPN6google8protobuf2io17CodedOutputStreamE@Base 3.13.34
 _ZNK18TWAMPSessionDelete39InternalSerializeWithCachedSizesToArrayEbPh@Base 3.13.34
 _ZNK19DPSessionCounterMsg11GetMetadataEv@Base 3.13.34
 _ZNK19DPSessionCounterMsg12ByteSizeLongEv@Base 3.13.34
 _ZNK19DPSessionCounterMsg13IsInitializedEv@Base 3.13.34
 _ZNK19DPSessionCounterMsg13SetCachedSizeEi@Base 3.13.34
 _ZNK19DPSessionCounterMsg24SerializeWithCachedSizesEPN6google8protobuf2io17CodedOutputStreamE@Base 3.13.34
 _ZNK19DPSessionCounterMsg39InternalSerializeWithCachedSizesToArrayEbPh@Base 3.13.34
 _ZNK19LAGConfig_LagCreate11GetMetadataEv@Base 3.13.6
 _ZNK19LAGConfig_LagCreate12ByteSizeLongEv@Base 3.13.6
 _ZNK19LAGConfig_LagCreate13IsInitializedEv@Base 3.13.6
 _ZNK19LAGConfig_LagCreate13SetCachedSizeEi@Base 3.13.6
 _ZNK19LAGConfig_LagCreate24SerializeWithCachedSizesEPN6google8protobuf2io17CodedOutputStreamE@Base 3.13.6
 _ZNK19LAGConfig_LagCreate39InternalSerializeWithCachedSizesToArrayEbPh@Base 3.13.6
 _ZNK19LAGConfig_LagDelete11GetMetadataEv@Base 3.13.6
 _ZNK19LAGConfig_LagDelete12ByteSizeLongEv@Base 3.13.6
 _ZNK19LAGConfig_LagDelete13IsInitializedEv@Base 3.13.6
 _ZNK19LAGConfig_LagDelete13SetCachedSizeEi@Base 3.13.6
 _ZNK19LAGConfig_LagDelete24SerializeWithCachedSizesEPN6google8protobuf2io17CodedOutputStreamE@Base 3.13.6
 _ZNK19LAGConfig_LagDelete39InternalSerializeWithCachedSizesToArrayEbPh@Base 3.13.6
 _ZNK19PipelineStatsConfig11GetMetadataEv@Base 3.13.6
 _ZNK19PipelineStatsConfig12ByteSizeLongEv@Base 3.13.6
 _ZNK19PipelineStatsConfig13IsInitializedEv@Base 3.13.6
 _ZNK19PipelineStatsConfig13SetCachedSizeEi@Base 3.13.6
 _ZNK19PipelineStatsConfig24SerializeWithCachedSizesEPN6google8protobuf2io17CodedOutputStreamE@Base 3.13.6
 _ZNK19PipelineStatsConfig39InternalSerializeWithCachedSizesToArrayEbPh@Base 3.13.6
 _ZNK19SfpPermitConfig_SFP11GetMetadataEv@Base 3.13.34
 _ZNK19SfpPermitConfig_SFP12ByteSizeLongEv@Base 3.13.34
 _ZNK19SfpPermitConfig_SFP13IsInitializedEv@Base 3.13.34
 _ZNK19SfpPermitConfig_SFP13SetCachedSizeEi@Base 3.13.34
 _ZNK19SfpPermitConfig_SFP24SerializeWithCachedSizesEPN6google8protobuf2io17CodedOutputStreamE@Base 3.13.34
 _ZNK19SfpPermitConfig_SFP39InternalSerializeWithCachedSizesToArrayEbPh@Base 3.13.34
 _ZNK20TWAMPSessionCounters11GetMetadataEv@Base 3.13.34
 _ZNK20TWAMPSessionCounters12ByteSizeLongEv@Base 3.13.34
 _ZNK20TWAMPSessionCounters13IsInitializedEv@Base 3.13.34
 _ZNK20TWAMPSessionCounters13SetCachedSizeEi@Base 3.13.34
 _ZNK20TWAMPSessionCounters24SerializeWithCachedSizesEPN6google8protobuf2io17CodedOutputStreamE@Base 3.13.34
 _ZNK20TWAMPSessionCounters39InternalSerializeWithCachedSizesToArrayEbPh@Base 3.13.34
 _ZNK21FeatureAffinityConfig11GetMetadataEv@Base 3.13.6
 _ZNK21FeatureAffinityConfig12ByteSizeLongEv@Base 3.13.6
 _ZNK21FeatureAffinityConfig13IsInitializedEv@Base 3.13.6
 _ZNK21FeatureAffinityConfig13SetCachedSizeEi@Base 3.13.6
 _ZNK21FeatureAffinityConfig24SerializeWithCachedSizesEPN6google8protobuf2io17CodedOutputStreamE@Base 3.13.6
 _ZNK21FeatureAffinityConfig39InternalSerializeWithCachedSizesToArrayEbPh@Base 3.13.6
 _ZNK25PauseConfig_PauseIfConfig11GetMetadataEv@Base 3.13.6
 _ZNK25PauseConfig_PauseIfConfig12ByteSizeLongEv@Base 3.13.6
 _ZNK25PauseConfig_PauseIfConfig13IsInitializedEv@Base 3.13.6
 _ZNK25PauseConfig_PauseIfConfig13SetCachedSizeEi@Base 3.13.6
 _ZNK25PauseConfig_PauseIfConfig24SerializeWithCachedSizesEPN6google8protobuf2io17CodedOutputStreamE@Base 3.13.6
 _ZNK25PauseConfig_PauseIfConfig39InternalSerializeWithCachedSizesToArrayEbPh@Base 3.13.6
 _ZNK25RuleMatch_ICMPTypeAndCode11GetMetadataEv@Base 3.13.6
 _ZNK25RuleMatch_ICMPTypeAndCode12ByteSizeLongEv@Base 3.13.6
 _ZNK25RuleMatch_ICMPTypeAndCode13IsInitializedEv@Base 3.13.6
 _ZNK25RuleMatch_ICMPTypeAndCode13SetCachedSizeEi@Base 3.13.6
 _ZNK25RuleMatch_ICMPTypeAndCode24SerializeWithCachedSizesEPN6google8protobuf2io17CodedOutputStreamE@Base 3.13.6
 _ZNK25RuleMatch_ICMPTypeAndCode39InternalSerializeWithCachedSizesToArrayEbPh@Base 3.13.6
 _ZNK26SfpPermitConfig_ListConfig11GetMetadataEv@Base 3.13.34
 _ZNK26SfpPermitConfig_ListConfig12ByteSizeLongEv@Base 3.13.34
 _ZNK26SfpPermitConfig_ListConfig13IsInitializedEv@Base 3.13.34
 _ZNK26SfpPermitConfig_ListConfig13SetCachedSizeEi@Base 3.13.34
 _ZNK26SfpPermitConfig_ListConfig24SerializeWithCachedSizesEPN6google8protobuf2io17CodedOutputStreamE@Base 3.13.34
 _ZNK26SfpPermitConfig_ListConfig39InternalSerializeWithCachedSizesToArrayEbPh@Base 3.13.34
 _ZNK27TWAMPSessionCounterResponse11GetMetadataEv@Base 3.13.34
 _ZNK27TWAMPSessionCounterResponse12ByteSizeLongEv@Base 3.13.34
 _ZNK27TWAMPSessionCounterResponse13IsInitializedEv@Base 3.13.34
 _ZNK27TWAMPSessionCounterResponse13SetCachedSizeEi@Base 3.13.34
 _ZNK27TWAMPSessionCounterResponse24SerializeWithCachedSizesEPN6google8protobuf2io17CodedOutputStreamE@Base 3.13.34
 _ZNK27TWAMPSessionCounterResponse39InternalSerializeWithCachedSizesToArrayEbPh@Base 3.13.34
 _ZNK30SfpPermitConfig_MisMatchConfig11GetMetadataEv@Base 3.13.34
 _ZNK30SfpPermitConfig_MisMatchConfig12ByteSizeLongEv@Base 3.13.34
 _ZNK30SfpPermitConfig_MisMatchConfig13IsInitializedEv@Base 3.13.34
 _ZNK30SfpPermitConfig_MisMatchConfig13SetCachedSizeEi@Base 3.13.34
 _ZNK30SfpPermitConfig_MisMatchConfig24SerializeWithCachedSizesEPN6google8protobuf2io17CodedOutputStreamE@Base 3.13.34
 _ZNK30SfpPermitConfig_MisMatchConfig39InternalSerializeWithCachedSizesToArrayEbPh@Base 3.13.34
 _ZNK31BreakoutConfig_BreakoutIfConfig11GetMetadataEv@Base 3.13.6
 _ZNK31BreakoutConfig_BreakoutIfConfig12ByteSizeLongEv@Base 3.13.6
 _ZNK31BreakoutConfig_BreakoutIfConfig13IsInitializedEv@Base 3.13.6
 _ZNK31BreakoutConfig_BreakoutIfConfig13SetCachedSizeEi@Base 3.13.6
 _ZNK31BreakoutConfig_BreakoutIfConfig24SerializeWithCachedSizesEPN6google8protobuf2io17CodedOutputStreamE@Base 3.13.6
 _ZNK31BreakoutConfig_BreakoutIfConfig39InternalSerializeWithCachedSizesToArrayEbPh@Base 3.13.6
 _ZNK31LAGConfig_LagCreate_LacpOptions11GetMetadataEv@Base 3.13.6
 _ZNK31LAGConfig_LagCreate_LacpOptions12ByteSizeLongEv@Base 3.13.6
 _ZNK31LAGConfig_LagCreate_LacpOptions13IsInitializedEv@Base 3.13.6
 _ZNK31LAGConfig_LagCreate_LacpOptions13SetCachedSizeEi@Base 3.13.6
 _ZNK31LAGConfig_LagCreate_LacpOptions24SerializeWithCachedSizesEPN6google8protobuf2io17CodedOutputStreamE@Base 3.13.6
 _ZNK31LAGConfig_LagCreate_LacpOptions39InternalSerializeWithCachedSizesToArrayEbPh@Base 3.13.6
 _ZNK35MacLimitConfig_MacLimitIfVLANConfig11GetMetadataEv@Base 3.13.6
 _ZNK35MacLimitConfig_MacLimitIfVLANConfig12ByteSizeLongEv@Base 3.13.6
 _ZNK35MacLimitConfig_MacLimitIfVLANConfig13IsInitializedEv@Base 3.13.6
 _ZNK35MacLimitConfig_MacLimitIfVLANConfig13SetCachedSizeEi@Base 3.13.6
 _ZNK35MacLimitConfig_MacLimitIfVLANConfig24SerializeWithCachedSizesEPN6google8protobuf2io17CodedOutputStreamE@Base 3.13.6
 _ZNK35MacLimitConfig_MacLimitIfVLANConfig39InternalSerializeWithCachedSizesToArrayEbPh@Base 3.13.6
 _ZNK36MacLimitConfig_MacLimitProfileConfig11GetMetadataEv@Base 3.13.6
 _ZNK36MacLimitConfig_MacLimitProfileConfig12ByteSizeLongEv@Base 3.13.6
 _ZNK36MacLimitConfig_MacLimitProfileConfig13IsInitializedEv@Base 3.13.6
 _ZNK36MacLimitConfig_MacLimitProfileConfig13SetCachedSizeEi@Base 3.13.6
 _ZNK36MacLimitConfig_MacLimitProfileConfig24SerializeWithCachedSizesEPN6google8protobuf2io17CodedOutputStreamE@Base 3.13.6
 _ZNK36MacLimitConfig_MacLimitProfileConfig39InternalSerializeWithCachedSizesToArrayEbPh@Base 3.13.6
 _ZNK4Path11GetMetadataEv@Base 3.13.6
 _ZNK4Path12ByteSizeLongEv@Base 3.13.6
 _ZNK4Path13IsInitializedEv@Base 3.13.6
 _ZNK4Path13SetCachedSizeEi@Base 3.13.6
 _ZNK4Path24SerializeWithCachedSizesEPN6google8protobuf2io17CodedOutputStreamE@Base 3.13.6
 _ZNK4Path39InternalSerializeWithCachedSizesToArrayEbPh@Base 3.13.6
 _ZNK4Rule11GetMetadataEv@Base 3.13.6
 _ZNK4Rule12ByteSizeLongEv@Base 3.13.6
 _ZNK4Rule13IsInitializedEv@Base 3.13.6
 _ZNK4Rule13SetCachedSizeEi@Base 3.13.6
 _ZNK4Rule24SerializeWithCachedSizesEPN6google8protobuf2io17CodedOutputStreamE@Base 3.13.6
 _ZNK4Rule39InternalSerializeWithCachedSizesToArrayEbPh@Base 3.13.6
 _ZNK5Route11GetMetadataEv@Base 3.13.6
 _ZNK5Route12ByteSizeLongEv@Base 3.13.6
 _ZNK5Route13IsInitializedEv@Base 3.13.6
 _ZNK5Route13SetCachedSizeEi@Base 3.13.6
 _ZNK5Route24SerializeWithCachedSizesEPN6google8protobuf2io17CodedOutputStreamE@Base 3.13.6
 _ZNK5Route39InternalSerializeWithCachedSizesToArrayEbPh@Base 3.13.6
 _ZNK5Rules11GetMetadataEv@Base 3.13.6
 _ZNK5Rules12ByteSizeLongEv@Base 3.13.6
 _ZNK5Rules13IsInitializedEv@Base 3.13.6
 _ZNK5Rules13SetCachedSizeEi@Base 3.13.6
 _ZNK5Rules24SerializeWithCachedSizesEPN6google8protobuf2io17CodedOutputStreamE@Base 3.13.6
 _ZNK5Rules39InternalSerializeWithCachedSizesToArrayEbPh@Base 3.13.6
 _ZNK6cpp_rl11CPP_limiter11GetMetadataEv@Base 3.13.6
 _ZNK6cpp_rl11CPP_limiter12ByteSizeLongEv@Base 3.13.6
 _ZNK6cpp_rl11CPP_limiter13IsInitializedEv@Base 3.13.6
 _ZNK6cpp_rl11CPP_limiter13SetCachedSizeEi@Base 3.13.6
 _ZNK6cpp_rl11CPP_limiter24SerializeWithCachedSizesEPN6google8protobuf2io17CodedOutputStreamE@Base 3.13.6
 _ZNK6cpp_rl11CPP_limiter39InternalSerializeWithCachedSizesToArrayEbPh@Base 3.13.6
 _ZNK6cpp_rl25CPP_limiter_CPP_attribute11GetMetadataEv@Base 3.13.6
 _ZNK6cpp_rl25CPP_limiter_CPP_attribute12ByteSizeLongEv@Base 3.13.6
 _ZNK6cpp_rl25CPP_limiter_CPP_attribute13IsInitializedEv@Base 3.13.6
 _ZNK6cpp_rl25CPP_limiter_CPP_attribute13SetCachedSizeEi@Base 3.13.6
 _ZNK6cpp_rl25CPP_limiter_CPP_attribute24SerializeWithCachedSizesEPN6google8protobuf2io17CodedOutputStreamE@Base 3.13.6
 _ZNK6cpp_rl25CPP_limiter_CPP_attribute39InternalSerializeWithCachedSizesToArrayEbPh@Base 3.13.6
 _ZNK6cpp_rl39CPP_limiter_CPP_attribute_CPP_parameter11GetMetadataEv@Base 3.13.6
 _ZNK6cpp_rl39CPP_limiter_CPP_attribute_CPP_parameter12ByteSizeLongEv@Base 3.13.6
 _ZNK6cpp_rl39CPP_limiter_CPP_attribute_CPP_parameter13IsInitializedEv@Base 3.13.6
 _ZNK6cpp_rl39CPP_limiter_CPP_attribute_CPP_parameter13SetCachedSizeEi@Base 3.13.6
 _ZNK6cpp_rl39CPP_limiter_CPP_attribute_CPP_parameter24SerializeWithCachedSizesEPN6google8protobuf2io17CodedOutputStreamE@Base 3.13.6
 _ZNK6cpp_rl39CPP_limiter_CPP_attribute_CPP_parameter39InternalSerializeWithCachedSizesToArrayEbPh@Base 3.13.6
 _ZNK8CgnatLog11GetMetadataEv@Base 3.13.6
 _ZNK8CgnatLog12ByteSizeLongEv@Base 3.13.6
 _ZNK8CgnatLog13IsInitializedEv@Base 3.13.6
 _ZNK8CgnatLog13SetCachedSizeEi@Base 3.13.6
 _ZNK8CgnatLog24SerializeWithCachedSizesEPN6google8protobuf2io17CodedOutputStreamE@Base 3.13.6
 _ZNK8CgnatLog39InternalSerializeWithCachedSizesToArrayEbPh@Base 3.13.6
 _ZNK8GPCTable11GetMetadataEv@Base 3.13.6
 _ZNK8GPCTable12ByteSizeLongEv@Base 3.13.6
 _ZNK8GPCTable13IsInitializedEv@Base 3.13.6
 _ZNK8GPCTable13SetCachedSizeEi@Base 3.13.6
 _ZNK8GPCTable24SerializeWithCachedSizesEPN6google8protobuf2io17CodedOutputStreamE@Base 3.13.6
 _ZNK8GPCTable39InternalSerializeWithCachedSizesToArrayEbPh@Base 3.13.6
 _ZNK8IPPrefix11GetMetadataEv@Base 3.13.6
 _ZNK8IPPrefix12ByteSizeLongEv@Base 3.13.6
 _ZNK8IPPrefix13IsInitializedEv@Base 3.13.6
 _ZNK8IPPrefix13SetCachedSizeEi@Base 3.13.6
 _ZNK8IPPrefix24SerializeWithCachedSizesEPN6google8protobuf2io17CodedOutputStreamE@Base 3.13.6
 _ZNK8IPPrefix39InternalSerializeWithCachedSizesToArrayEbPh@Base 3.13.6
 _ZNK8TWAMPCmd11GetMetadataEv@Base 3.13.34
 _ZNK8TWAMPCmd12ByteSizeLongEv@Base 3.13.34
 _ZNK8TWAMPCmd13IsInitializedEv@Base 3.13.34
 _ZNK8TWAMPCmd13SetCachedSizeEi@Base 3.13.34
 _ZNK8TWAMPCmd24SerializeWithCachedSizesEPN6google8protobuf2io17CodedOutputStreamE@Base 3.13.34
 _ZNK8TWAMPCmd39InternalSerializeWithCachedSizesToArrayEbPh@Base 3.13.34
 _ZNK9GPCConfig11GetMetadataEv@Base 3.13.6
 _ZNK9GPCConfig12ByteSizeLongEv@Base 3.13.6
 _ZNK9GPCConfig13IsInitializedEv@Base 3.13.6
 _ZNK9GPCConfig13SetCachedSizeEi@Base 3.13.6
 _ZNK9GPCConfig24SerializeWithCachedSizesEPN6google8protobuf2io17CodedOutputStreamE@Base 3.13.6
 _ZNK9GPCConfig39InternalSerializeWithCachedSizesToArrayEbPh@Base 3.13.6
 _ZNK9IPAddress11GetMetadataEv@Base 3.13.6
 _ZNK9IPAddress12ByteSizeLongEv@Base 3.13.6
 _ZNK9IPAddress13IsInitializedEv@Base 3.13.6
 _ZNK9IPAddress13SetCachedSizeEi@Base 3.13.6
 _ZNK9IPAddress24SerializeWithCachedSizesEPN6google8protobuf2io17CodedOutputStreamE@Base 3.13.6
 _ZNK9IPAddress39InternalSerializeWithCachedSizesToArrayEbPh@Base 3.13.6
 _ZNK9LAGConfig11GetMetadataEv@Base 3.13.6
 _ZNK9LAGConfig12ByteSizeLongEv@Base 3.13.6
 _ZNK9LAGConfig13IsInitializedEv@Base 3.13.6
 _ZNK9LAGConfig13SetCachedSizeEi@Base 3.13.6
 _ZNK9LAGConfig24SerializeWithCachedSizesEPN6google8protobuf2io17CodedOutputStreamE@Base 3.13.6
 _ZNK9LAGConfig39InternalSerializeWithCachedSizesToArrayEbPh@Base 3.13.6
 _ZNK9RibUpdate11GetMetadataEv@Base 3.13.6
 _ZNK9RibUpdate12ByteSizeLongEv@Base 3.13.6
 _ZNK9RibUpdate13IsInitializedEv@Base 3.13.6
 _ZNK9RibUpdate13SetCachedSizeEi@Base 3.13.6
 _ZNK9RibUpdate24SerializeWithCachedSizesEPN6google8protobuf2io17CodedOutputStreamE@Base 3.13.6
 _ZNK9RibUpdate39InternalSerializeWithCachedSizesToArrayEbPh@Base 3.13.6
 _ZNK9RuleMatch11GetMetadataEv@Base 3.13.6
 _ZNK9RuleMatch12ByteSizeLongEv@Base 3.13.6
 _ZNK9RuleMatch13IsInitializedEv@Base 3.13.6
 _ZNK9RuleMatch13SetCachedSizeEi@Base 3.13.6
 _ZNK9RuleMatch24SerializeWithCachedSizesEPN6google8protobuf2io17CodedOutputStreamE@Base 3.13.6
 _ZNK9RuleMatch39InternalSerializeWithCachedSizesToArrayEbPh@Base 3.13.6
 _ZNK9Timestamp11GetMetadataEv@Base 3.13.6
 _ZNK9Timestamp12ByteSizeLongEv@Base 3.13.6
 _ZNK9Timestamp13IsInitializedEv@Base 3.13.6
 _ZNK9Timestamp13SetCachedSizeEi@Base 3.13.6
 _ZNK9Timestamp24SerializeWithCachedSizesEPN6google8protobuf2io17CodedOutputStreamE@Base 3.13.6
 _ZNK9Timestamp39InternalSerializeWithCachedSizesToArrayEbPh@Base 3.13.6
 _ZTI10GArpConfig@Base 3.13.6
 _ZTI10GPCCounter@Base 3.13.6
 _ZTI10RuleAction@Base 3.13.6
 _ZTI10SessionLog@Base 3.13.6
 _ZTI11PPPOEConfig@Base 3.13.6
 _ZTI11PauseConfig@Base 3.13.6
 _ZTI11RuleCounter@Base 3.13.6
 _ZTI11SpeedConfig@Base 3.13.6
 _ZTI11SynceConfig@Base 3.13.6
 _ZTI12DPSessionMsg@Base 3.13.34
 _ZTI12NbrResConfig@Base 3.13.6
 _ZTI12TCPMSSConfig@Base 3.13.6
 _ZTI12TCPWindowMsg@Base 3.13.34
 _ZTI12VFPSetConfig@Base 3.13.6
 _ZTI13ConstraintLog@Base 3.13.6
 _ZTI13NPFSessionMsg@Base 3.13.34
 _ZTI13PolicerParams@Base 3.13.6
 _ZTI13SubscriberLog@Base 3.13.6
 _ZTI14BreakoutConfig@Base 3.13.6
 _ZTI14MacLimitConfig@Base 3.13.6
 _ZTI14XConnectConfig@Base 3.13.6
 _ZTI15DPSessionKeyMsg@Base 3.13.34
 _ZTI15SfpPermitConfig@Base 3.13.34
 _ZTI15TWAMPInitialise@Base 3.13.34
 _ZTI15TWAMPSessionKey@Base 3.13.34
 _ZTI16IPAddressOrLabel@Base 3.13.6
 _ZTI16TWAMPCmdResponse@Base 3.13.34
 _ZTI17DPSessionStateMsg@Base 3.13.34
 _ZTI17DataplaneEnvelope@Base 3.13.6
 _ZTI17ICMPRateLimConfig@Base 3.13.34
 _ZTI17PortAllocationLog@Base 3.13.6
 _ZTI18CryptoPolicyConfig@Base 3.13.6
 _ZTI18IP6RedirectsConfig@Base 3.13.6
 _ZTI18NPFSessionStateMsg@Base 3.13.34
 _ZTI18PackedDPSessionMsg@Base 3.13.34
 _ZTI18TWAMPSessionCreate@Base 3.13.34
 _ZTI18TWAMPSessionDelete@Base 3.13.34
 _ZTI19DPSessionCounterMsg@Base 3.13.34
 _ZTI19LAGConfig_LagCreate@Base 3.13.6
 _ZTI19LAGConfig_LagDelete@Base 3.13.6
 _ZTI19PipelineStatsConfig@Base 3.13.6
 _ZTI19SfpPermitConfig_SFP@Base 3.13.34
 _ZTI20TWAMPSessionCounters@Base 3.13.34
 _ZTI21FeatureAffinityConfig@Base 3.13.6
 _ZTI25PauseConfig_PauseIfConfig@Base 3.13.6
 _ZTI25RuleMatch_ICMPTypeAndCode@Base 3.13.6
 _ZTI26SfpPermitConfig_ListConfig@Base 3.13.34
 _ZTI27TWAMPSessionCounterResponse@Base 3.13.34
 _ZTI30SfpPermitConfig_MisMatchConfig@Base 3.13.34
 _ZTI31BreakoutConfig_BreakoutIfConfig@Base 3.13.6
 _ZTI31LAGConfig_LagCreate_LacpOptions@Base 3.13.6
 _ZTI35MacLimitConfig_MacLimitIfVLANConfig@Base 3.13.6
 _ZTI36MacLimitConfig_MacLimitProfileConfig@Base 3.13.6
 _ZTI4Path@Base 3.13.6
 _ZTI4Rule@Base 3.13.6
 _ZTI5Route@Base 3.13.6
 _ZTI5Rules@Base 3.13.6
 _ZTI8CgnatLog@Base 3.13.6
 _ZTI8GPCTable@Base 3.13.6
 _ZTI8IPPrefix@Base 3.13.6
 _ZTI8TWAMPCmd@Base 3.13.34
 _ZTI9GPCConfig@Base 3.13.6
 _ZTI9IPAddress@Base 3.13.6
 _ZTI9LAGConfig@Base 3.13.6
 _ZTI9RibUpdate@Base 3.13.6
 _ZTI9RuleMatch@Base 3.13.6
 _ZTI9Timestamp@Base 3.13.6
 _ZTIN6cpp_rl11CPP_limiterE@Base 3.13.6
 _ZTIN6cpp_rl25CPP_limiter_CPP_attributeE@Base 3.13.6
 _ZTIN6cpp_rl39CPP_limiter_CPP_attribute_CPP_parameterE@Base 3.13.6
 _ZTIN6google8protobuf8internal29InternalMetadataWithArenaBaseINS0_15UnknownFieldSetENS1_25InternalMetadataWithArenaEE9ContainerE@Base 3.13.6
 _ZTINSt7__cxx1112basic_stringIcSt11char_traitsIcESaIcEEE@Base 3.13.6
 _ZTS10GArpConfig@Base 3.13.6
 _ZTS10GPCCounter@Base 3.13.6
 _ZTS10RuleAction@Base 3.13.6
 _ZTS10SessionLog@Base 3.13.6
 _ZTS11PPPOEConfig@Base 3.13.6
 _ZTS11PauseConfig@Base 3.13.6
 _ZTS11RuleCounter@Base 3.13.6
 _ZTS11SpeedConfig@Base 3.13.6
 _ZTS11SynceConfig@Base 3.13.6
 _ZTS12DPSessionMsg@Base 3.13.34
 _ZTS12NbrResConfig@Base 3.13.6
 _ZTS12TCPMSSConfig@Base 3.13.6
 _ZTS12TCPWindowMsg@Base 3.13.34
 _ZTS12VFPSetConfig@Base 3.13.6
 _ZTS13ConstraintLog@Base 3.13.6
 _ZTS13NPFSessionMsg@Base 3.13.34
 _ZTS13PolicerParams@Base 3.13.6
 _ZTS13SubscriberLog@Base 3.13.6
 _ZTS14BreakoutConfig@Base 3.13.6
 _ZTS14MacLimitConfig@Base 3.13.6
 _ZTS14XConnectConfig@Base 3.13.6
 _ZTS15DPSessionKeyMsg@Base 3.13.34
 _ZTS15SfpPermitConfig@Base 3.13.34
 _ZTS15TWAMPInitialise@Base 3.13.34
 _ZTS15TWAMPSessionKey@Base 3.13.34
 _ZTS16IPAddressOrLabel@Base 3.13.6
 _ZTS16TWAMPCmdResponse@Base 3.13.34
 _ZTS17DPSessionStateMsg@Base 3.13.34
 _ZTS17DataplaneEnvelope@Base 3.13.6
 _ZTS17ICMPRateLimConfig@Base 3.13.34
 _ZTS17PortAllocationLog@Base 3.13.6
 _ZTS18CryptoPolicyConfig@Base 3.13.6
 _ZTS18IP6RedirectsConfig@Base 3.13.6
 _ZTS18NPFSessionStateMsg@Base 3.13.34
 _ZTS18PackedDPSessionMsg@Base 3.13.34
 _ZTS18TWAMPSessionCreate@Base 3.13.34
 _ZTS18TWAMPSessionDelete@Base 3.13.34
 _ZTS19DPSessionCounterMsg@Base 3.13.34
 _ZTS19LAGConfig_LagCreate@Base 3.13.6
 _ZTS19LAGConfig_LagDelete@Base 3.13.6
 _ZTS19PipelineStatsConfig@Base 3.13.6
 _ZTS19SfpPermitConfig_SFP@Base 3.13.34
 _ZTS20TWAMPSessionCounters@Base 3.13.34
 _ZTS21FeatureAffinityConfig@Base 3.13.6
 _ZTS25PauseConfig_PauseIfConfig@Base 3.13.6
 _ZTS25RuleMatch_ICMPTypeAndCode@Base 3.13.6
 _ZTS26SfpPermitConfig_ListConfig@Base 3.13.34
 _ZTS27TWAMPSessionCounterResponse@Base 3.13.34
 _ZTS30SfpPermitConfig_MisMatchConfig@Base 3.13.34
 _ZTS31BreakoutConfig_BreakoutIfConfig@Base 3.13.6
 _ZTS31LAGConfig_LagCreate_LacpOptions@Base 3.13.6
 _ZTS35MacLimitConfig_MacLimitIfVLANConfig@Base 3.13.6
 _ZTS36MacLimitConfig_MacLimitProfileConfig@Base 3.13.6
 _ZTS4Path@Base 3.13.6
 _ZTS4Rule@Base 3.13.6
 _ZTS5Route@Base 3.13.6
 _ZTS5Rules@Base 3.13.6
 _ZTS8CgnatLog@Base 3.13.6
 _ZTS8GPCTable@Base 3.13.6
 _ZTS8IPPrefix@Base 3.13.6
 _ZTS8TWAMPCmd@Base 3.13.34
 _ZTS9GPCConfig@Base 3.13.6
 _ZTS9IPAddress@Base 3.13.6
 _ZTS9LAGConfig@Base 3.13.6
 _ZTS9RibUpdate@Base 3.13.6
 _ZTS9RuleMatch@Base 3.13.6
 _ZTS9Timestamp@Base 3.13.6
 _ZTSN6cpp_rl11CPP_limiterE@Base 3.13.6
 _ZTSN6cpp_rl25CPP_limiter_CPP_attributeE@Base 3.13.6
 _ZTSN6cpp_rl39CPP_limiter_CPP_attribute_CPP_parameterE@Base 3.13.6
 _ZTSN6google8protobuf8internal29InternalMetadataWithArenaBaseINS0_15UnknownFieldSetENS1_25InternalMetadataWithArenaEE9ContainerE@Base 3.13.6
 _ZTSNSt7__cxx1112basic_stringIcSt11char_traitsIcESaIcEEE@Base 3.13.6
 _ZTV10GArpConfig@Base 3.13.6
 _ZTV10GPCCounter@Base 3.13.6
 _ZTV10RuleAction@Base 3.13.6
 _ZTV10SessionLog@Base 3.13.6
 _ZTV11PPPOEConfig@Base 3.13.6
 _ZTV11PauseConfig@Base 3.13.6
 _ZTV11RuleCounter@Base 3.13.6
 _ZTV11SpeedConfig@Base 3.13.6
 _ZTV11SynceConfig@Base 3.13.6
 _ZTV12DPSessionMsg@Base 3.13.34
 _ZTV12NbrResConfig@Base 3.13.6
 _ZTV12TCPMSSConfig@Base 3.13.6
 _ZTV12TCPWindowMsg@Base 3.13.34
 _ZTV12VFPSetConfig@Base 3.13.6
 _ZTV13ConstraintLog@Base 3.13.6
 _ZTV13NPFSessionMsg@Base 3.13.34
 _ZTV13PolicerParams@Base 3.13.6
 _ZTV13SubscriberLog@Base 3.13.6
 _ZTV14BreakoutConfig@Base 3.13.6
 _ZTV14MacLimitConfig@Base 3.13.6
 _ZTV14XConnectConfig@Base 3.13.6
 _ZTV15DPSessionKeyMsg@Base 3.13.34
 _ZTV15SfpPermitConfig@Base 3.13.34
 _ZTV15TWAMPInitialise@Base 3.13.34
 _ZTV15TWAMPSessionKey@Base 3.13.34
 _ZTV16IPAddressOrLabel@Base 3.13.6
 _ZTV16TWAMPCmdResponse@Base 3.13.34
 _ZTV17DPSessionStateMsg@Base 3.13.34
 _ZTV17DataplaneEnvelope@Base 3.13.6
 _ZTV17ICMPRateLimConfig@Base 3.13.34
 _ZTV17PortAllocationLog@Base 3.13.6
 _ZTV18CryptoPolicyConfig@Base 3.13.6
 _ZTV18IP6RedirectsConfig@Base 3.13.6
 _ZTV18NPFSessionStateMsg@Base 3.13.34
 _ZTV18PackedDPSessionMsg@Base 3.13.34
 _ZTV18TWAMPSessionCreate@Base 3.13.34
 _ZTV18TWAMPSessionDelete@Base 3.13.34
 _ZTV19DPSessionCounterMsg@Base 3.13.34
 _ZTV19LAGConfig_LagCreate@Base 3.13.6
 _ZTV19LAGConfig_LagDelete@Base 3.13.6
 _ZTV19PipelineStatsConfig@Base 3.13.6
 _ZTV19SfpPermitConfig_SFP@Base 3.13.34
 _ZTV20TWAMPSessionCounters@Base 3.13.34
 _ZTV21FeatureAffinityConfig@Base 3.13.6
 _ZTV25PauseConfig_PauseIfConfig@Base 3.13.6
 _ZTV25RuleMatch_ICMPTypeAndCode@Base 3.13.6
 _ZTV26SfpPermitConfig_ListConfig@Base 3.13.34
 _ZTV27TWAMPSessionCounterResponse@Base 3.13.34
 _ZTV30SfpPermitConfig_MisMatchConfig@Base 3.13.34
 _ZTV31BreakoutConfig_BreakoutIfConfig@Base 3.13.6
 _ZTV31LAGConfig_LagCreate_LacpOptions@Base 3.13.6
 _ZTV35MacLimitConfig_MacLimitIfVLANConfig@Base 3.13.6
 _ZTV36MacLimitConfig_MacLimitProfileConfig@Base 3.13.6
 _ZTV4Path@Base 3.13.6
 _ZTV4Rule@Base 3.13.6
 _ZTV5Route@Base 3.13.6
 _ZTV5Rules@Base 3.13.6
 _ZTV8CgnatLog@Base 3.13.6
 _ZTV8GPCTable@Base 3.13.6
 _ZTV8IPPrefix@Base 3.13.6
 _ZTV8TWAMPCmd@Base 3.13.34
 _ZTV9GPCConfig@Base 3.13.6
 _ZTV9IPAddress@Base 3.13.6
 _ZTV9LAGConfig@Base 3.13.6
 _ZTV9RibUpdate@Base 3.13.6
 _ZTV9RuleMatch@Base 3.13.6
 _ZTV9Timestamp@Base 3.13.6
 _ZTVN6cpp_rl11CPP_limiterE@Base 3.13.6
 _ZTVN6cpp_rl25CPP_limiter_CPP_attributeE@Base 3.13.6
 _ZTVN6cpp_rl39CPP_limiter_CPP_attribute_CPP_parameterE@Base 3.13.6
 _ZZSt9call_onceIRFvvEJEEvRSt9once_flagOT_DpOT0_ENUlvE0_4_FUNEv@Base 3.13.6
